(lp0
F2.962198012914413e-05
aF6.391451908991887e-06
aF5.968106098664112e-06
aF5.237567119109325e-06
aF8.263649084629156e-06
aF5.109187884208483e-06
aF8.173477955353566e-06
aF9.923409192990033e-06
aF5.231453822209285e-06
aF9.231078319060496e-06
aF5.339964842184996e-06
aF6.020069122314453e-06
aF5.532533694536258e-06
aF5.372059650910206e-06
aF5.1153011811085235e-06
aF4.872297629331931e-06
aF5.402626135410406e-06
aF6.333375588441507e-06
aF5.558515206361429e-06
aF5.466815752860827e-06
aF5.262020306709485e-06
aF5.66702622633714e-06
aF5.390399541610326e-06
aF5.070979778583233e-06
aF5.333851545284956e-06
aF5.853481781788361e-06
aF6.281412564791166e-06
aF4.884524223132011e-06
aF4.474933330829327e-06
aF5.211585607284154e-06
aF5.129056099133614e-06
aF5.313983330359826e-06
aF7.172425587972005e-06
aF4.699596991905799e-06
aF5.7373291406876005e-06
aF4.928845625657302e-06
aF5.67313952323718e-06
aF6.064390524839743e-06
aF4.954827137482472e-06
aF4.699596991905799e-06
aF5.075564751258264e-06
aF5.602836608886719e-06
aF4.999148540007763e-06
aF5.781650543212891e-06
aF1.2897528134859525e-05
aF5.179490798558944e-06
aF5.570741800161509e-06
aF5.352191435985076e-06
aF9.044622763609275e-06
aF1.0409416296543219e-05
aF4.864656008206881e-06
aF5.281888521634615e-06
aF4.852429414406801e-06
aF5.1275277749086035e-06
aF5.775537246312851e-06
aF4.9808086493076425e-06
aF4.500914842654497e-06
aF4.436725225204076e-06
aF4.884524223132011e-06
aF5.313983330359826e-06
aF5.211585607284154e-06
aF5.1214144780085635e-06
aF5.191717392359024e-06
aF5.596723311986679e-06
aF5.353719760210086e-06
aF6.756721398769281e-06
aF5.9222563719138124e-06
aF5.9543511806390225e-06
aF4.8982791411571015e-06
aF5.0832063723833135e-06
aF5.320096627259866e-06
aF6.782702910594451e-06
aF5.301756736559745e-06
aF6.493849632067558e-06
aF5.462230780185797e-06
aF6.050635606814653e-06
aF4.948713840582432e-06
aF5.390399541610326e-06
aF5.193245716584034e-06
aF5.352191435985076e-06
aF1.0345226679092799e-05
aF4.603312565730168e-06
aF6.6787768632937704e-06
aF7.814321762476213e-06
aF4.653747265155499e-06
aF8.763411106207432e-06
aF5.255907009809445e-06
aF5.063338157458183e-06
aF4.9746953524076025e-06
aF5.576855097061549e-06
aF6.128580142290164e-06
aF5.211585607284154e-06
aF5.480570670885917e-06
aF5.564628503261469e-06
aF4.9303739498823115e-06
aF5.570741800161509e-06
aF6.891213930570162e-06
aF5.217698904184194e-06
aF5.147395989833734e-06
aF5.2238122010842344e-06
aF5.0449982667580626e-06
aF5.191717392359024e-06
aF4.936487246782352e-06
aF5.147395989833734e-06
aF5.634931417611929e-06
aF5.500438885811048e-06
aF4.479518303504357e-06
aF5.641044714511969e-06
aF5.103074587308443e-06
aF4.75003169133113e-06
aF5.608949905786759e-06
aF5.622704823811849e-06
aF5.320096627259866e-06
aF8.673239976931842e-06
aF5.595194987761669e-06
aF5.859595078688401e-06
aF6.070503821739783e-06
aF4.962468758607522e-06
aF4.9808086493076425e-06
aF6.159146626790364e-06
aF4.916619031857222e-06
aF5.205472310384114e-06
aF4.8921658442570615e-06
aF5.6807811443622295e-06
aF5.942124586838942e-06
aF4.9869219462076826e-06
aF5.251322037134415e-06
aF4.928845625657302e-06
aF5.122942802233573e-06
aF4.73627677330604e-06
aF5.225340525309245e-06
aF5.589081690861629e-06
aF4.499386518429487e-06
aF4.993035243107723e-06
aF5.903916481213692e-06
aF5.0129034580328525e-06
aF5.295643439659705e-06
aF4.884524223132011e-06
aF5.019016754932893e-06
aF5.211585607284154e-06
aF5.1214144780085635e-06
aF5.384286244710286e-06
aF6.6344554607684795e-06
aF7.172425587972005e-06
aF5.550873585236378e-06
aF5.313983330359826e-06
aF6.050635606814653e-06
aF5.161150907858824e-06
aF5.199359013484074e-06
aF5.621176499586839e-06
aF5.313983330359826e-06
aF8.53721912090595e-06
aF7.826548356276293e-06
aF5.333851545284956e-06
aF5.372059650910206e-06
aF5.199359013484074e-06
aF5.0449982667580626e-06
aF5.147395989833734e-06
aF7.398617573273487e-06
aF7.795981871776092e-06
aF5.506552182711088e-06
aF5.135169396033654e-06
aF6.102598630464994e-06
aF5.0893196692833535e-06
aF5.155037610958784e-06
aF4.934958922557342e-06
aF9.692632235013522e-06
aF5.384286244710286e-06
aF5.486683967785958e-06
aF4.820334605681591e-06
aF5.582968393961589e-06
aF9.698745531913562e-06
aF5.8015187581380206e-06
aF5.1978306892590645e-06
aF5.8718216724884815e-06
aF4.846316117506761e-06
aF5.141282692933694e-06
aF5.520307100736178e-06
aF5.628818120711889e-06
aF6.981385059845753e-06
aF4.9808086493076425e-06
aF4.75003169133113e-06
aF5.596723311986679e-06
aF4.988450270432692e-06
aF4.832561199481671e-06
aF5.205472310384114e-06
aF4.9685820555075624e-06
aF5.025130051832933e-06
aF5.0694514543582236e-06
aF8.763411106207432e-06
aF4.922732328757262e-06
aF6.62681383964343e-06
aF4.864656008206881e-06
aF5.199359013484074e-06
aF5.153509286733774e-06
aF5.8519534575633515e-06
aF5.569213475936498e-06
aF4.890637520032052e-06
aF4.685842073880709e-06
aF5.436249268360627e-06
aF5.359323615701789e-06
aF5.196302365034055e-06
aF5.418418819068844e-06
aF5.008827926766159e-06
aF4.735767331897703e-06
aF5.546798053969685e-06
aF5.7526123829377e-06
aF5.640535273103633e-06
aF5.940086821205596e-06
aF1.0445586636535123e-05
aF6.084768181173211e-06
aF5.367474678235177e-06
aF5.084225255199986e-06
aF6.384319729275174e-06
aF9.85667236849793e-06
aF5.897293742905315e-06
aF5.640535273103633e-06
aF5.838198539538261e-06
aF6.478056948409121e-06
aF5.453060834835737e-06
aF7.240181295280782e-06
aF5.811707586304754e-06
aF6.076617118639823e-06
aF5.66702622633714e-06
aF1.0665665324936565e-05
aF1.1069142920339209e-05
aF7.871888641618256e-06
aF6.6084739489433095e-06
aF9.410401694795006e-06
aF5.854500664605035e-06
aF5.263548630934495e-06
aF6.897836668878539e-06
aF6.103108071873331e-06
aF6.07865488427317e-06
aF5.016978989299546e-06
aF5.614044319870126e-06
aF5.6425730387369794e-06
aF6.025672977806156e-06
aF5.581440069736578e-06
aF5.972691071339143e-06
aF6.3170734633747325e-06
aF5.316530537401509e-06
aF5.008827926766159e-06
aF5.9156336336054355e-06
aF5.538646991436298e-06
aF5.308379474868122e-06
aF5.351172553168402e-06
aF5.410267756535457e-06
aF5.043469942533053e-06
aF5.605893257336739e-06
aF5.913595867972089e-06
aF5.913595867972089e-06
aF5.120905036600227e-06
aF5.008827926766159e-06
aF5.650724101270366e-06
aF6.188694228473892e-06
aF5.5732890072031915e-06
aF5.367474678235177e-06
aF5.7526123829377e-06
aF5.495853913136018e-06
aF8.513784816122463e-06
aF5.768914508004474e-06
aF9.752746321197248e-06
aF5.565137944669805e-06
aF7.676263140816975e-06
aF5.512156038202791e-06
aF1.014603508843316e-05
aF5.265586396567842e-06
aF5.008827926766159e-06
aF6.229449541140825e-06
aF1.0298867510934162e-05
aF8.110307220719818e-06
aF5.349134787535056e-06
aF5.8708027896718085e-06
aF5.340983725001669e-06
aF5.400078928368724e-06
aF8.436349722055289e-06
aF5.872840555305155e-06
aF5.461211897369124e-06
aF5.281888521634615e-06
aF5.931935758672209e-06
aF5.7444613204043135e-06
aF6.2212984786074385e-06
aF5.4449097723023506e-06
aF6.512698964176015e-06
aF6.7429664807441905e-06
aF5.889142680371929e-06
aF5.931935758672209e-06
aF5.290039584168002e-06
aF9.220889490893764e-06
aF6.178505400307158e-06
aF5.230944380800948e-06
aF6.529001089242788e-06
aF5.563100179036458e-06
aF5.9991820245726494e-06
aF5.391927865835337e-06
aF5.589591132269965e-06
aF5.367474678235177e-06
aF9.102699084159656e-06
aF5.461211897369124e-06
aF6.135712322006878e-06
aF5.041432176899706e-06
aF5.230944380800948e-06
aF5.504004975669404e-06
aF6.3680176042084e-06
aF9.57342294546274e-06
aF5.298190646701389e-06
aF4.990488036066039e-06
aF6.4882457765758545e-06
aF5.3063417092347754e-06
aF5.186113536867321e-06
aF5.940086821205596e-06
aF4.76225828513121e-06
aF5.6425730387369794e-06
aF5.889142680371929e-06
aF5.878953852205195e-06
aF5.316530537401509e-06
aF5.3246815999348956e-06
aF5.4265698816022304e-06
aF5.9156336336054355e-06
aF4.906939645098825e-06
aF5.6935171795706465e-06
aF5.605893257336739e-06
aF5.589591132269965e-06
aF1.0017655853532318e-05
aF6.427112807575454e-06
aF5.188151302500668e-06
aF5.38377680330195e-06
aF4.794862535264757e-06
aF1.0093053181966146e-05
aF5.779103336171207e-06
aF7.462297749315571e-06
aF5.418418819068844e-06
aF7.205539279513889e-06
aF6.922289856478699e-06
aF4.923241770165599e-06
aF4.966034848465879e-06
aF5.605893257336739e-06
aF5.3939656314686835e-06
aF5.597742194803352e-06
aF6.154052212706998e-06
aF5.212604490100828e-06
aF5.008827926766159e-06
aF5.033281114366319e-06
aF5.292077349801349e-06
aF5.281888521634615e-06
aF1.1692699204143297e-05
aF5.3572858500684424e-06
aF6.2151851817073984e-06
aF5.66702622633714e-06
aF4.947694957765759e-06
aF9.846483540331197e-06
aF5.72815919533754e-06
aF5.212604490100828e-06
aF7.478599874382345e-06
aF5.597742194803352e-06
aF5.677215054503873e-06
aF5.819858648838141e-06
aF5.1270183335002675e-06
aF5.5284581632695645e-06
aF5.5223448663695244e-06
aF6.469905885875734e-06
aF5.436758709768964e-06
aF5.880991617838542e-06
aF5.4449097723023506e-06
aF5.265586396567842e-06
aF5.204453427567441e-06
aF5.188151302500668e-06
aF5.6935171795706465e-06
aF5.546798053969685e-06
aF5.624233148036859e-06
aF6.213147416074052e-06
aF5.1718491774338945e-06
aF5.581440069736578e-06
aF9.461345835628672e-06
aF6.427112807575454e-06
aF5.343021490635016e-06
aF5.196302365034055e-06
aF9.530629867162459e-06
aF5.571251241569845e-06
aF5.188151302500668e-06
aF5.819858648838141e-06
aF6.32522452590812e-06
aF5.2737374591012285e-06
aF5.514193803836138e-06
aF5.308379474868122e-06
aF6.820401574811365e-06
aF5.948237883738982e-06
aF1.1281070546207266e-05
aF5.332832662468282e-06
aF1.1221975342840211e-05
aF5.512156038202791e-06
aF5.5223448663695244e-06
aF6.204996353540665e-06
aF5.479551788069244e-06
aF5.281888521634615e-06
aF6.315035697741386e-06
aF9.09454802162627e-06
aF1.0606570121569512e-05
aF5.153509286733774e-06
aF6.156089978340345e-06
aF6.333375588441507e-06
aF6.6787768632937704e-06
aF6.822439340444712e-06
aF6.859119121844952e-06
aF6.281412564791166e-06
aF6.923308739295373e-06
aF6.461754823342348e-06
aF6.039937337239583e-06
aF5.835141891088241e-06
aF6.782702910594451e-06
aF6.6910034570938505e-06
aF6.898855551695212e-06
aF6.449528229542268e-06
aF6.550397628392929e-06
aF6.6023606520432695e-06
aF6.473981417142428e-06
aF6.0368806887895635e-06
aF6.4373016357421875e-06
aF6.565680870643029e-06
aF6.794929504394531e-06
aF1.0756345895620492e-05
aF6.039937337239583e-06
aF6.63904043344351e-06
aF6.562624222193009e-06
aF6.449528229542268e-06
aF6.473981417142428e-06
aF6.052163931039663e-06
aF5.908501453888722e-06
aF1.794863969851763e-05
aF6.434244987292167e-06
aF6.5259444407927685e-06
aF6.758249722994291e-06
aF6.782702910594451e-06
aF6.156089978340345e-06
aF7.3084464439978965e-06
aF6.064390524839743e-06
aF6.281412564791166e-06
aF5.9604644775390625e-06
aF6.770476316794371e-06
aF7.959512563852164e-06
aF9.243304912860576e-06
aF1.2192970667129908e-05
aF7.345126225398137e-06
aF7.103650997846555e-06
aF6.116353548490084e-06
aF6.256959377191006e-06
aF7.577431507599659e-06
aF7.565204913799579e-06
aF7.332899631598057e-06
aF9.704858828813602e-06
aF9.231078319060496e-06
aF5.923784696138822e-06
aF6.269185970991086e-06
aF5.896274860088642e-06
aF6.281412564791166e-06
aF6.987498356745793e-06
aF6.449528229542268e-06
aF6.449528229542268e-06
aF6.128580142290164e-06
aF6.6543236756936094e-06
aF6.574850815993089e-06
aF8.717561379457131e-06
aF6.819382691994691e-06
aF6.434244987292167e-06
aF6.461754823342348e-06
aF6.116353548490084e-06
aF6.5259444407927685e-06
aF6.577907464443109e-06
aF6.153033329890324e-06
aF6.269185970991086e-06
aF7.809736789801182e-06
aF6.357828776041667e-06
aF7.589658101399739e-06
aF6.293639158591246e-06
aF6.064390524839743e-06
aF7.177010560647035e-06
aF7.268710014147636e-06
aF1.2000401814778646e-05
aF6.574850815993089e-06
aF6.449528229542268e-06
aF6.846892528044872e-06
aF6.039937337239583e-06
aF6.6145872458433496e-06
aF6.794929504394531e-06
aF6.553454276842948e-06
aF6.165259923690404e-06
aF6.345602182241587e-06
aF6.449528229542268e-06
aF6.846892528044872e-06
aF7.766943711500902e-06
aF6.333375588441507e-06
aF5.780122218987881e-06
aF6.6665502694936895e-06
aF6.486208010942508e-06
aF7.537695077749399e-06
aF5.920728047688802e-06
aF6.116353548490084e-06
aF6.987498356745793e-06
aF6.73073988694411e-06
aF6.779646262144431e-06
aF6.192769759740585e-06
aF7.280936607947717e-06
aF6.5137178469926885e-06
aF1.1972891978728465e-05
aF6.296695807041266e-06
aF7.256483420347556e-06
aF7.501015296349158e-06
aF6.987498356745793e-06
aF6.911082145495292e-06
aF6.1774865174904844e-06
aF6.642097081893529e-06
aF6.562624222193009e-06
aF6.5137178469926885e-06
aF7.65384771885016e-06
aF6.7429664807441905e-06
aF8.038985423552684e-06
aF6.498434604742588e-06
aF7.5621482653495595e-06
aF6.140806736090244e-06
aF8.256007463504107e-06
aF5.936011289938902e-06
aF6.024654094989483e-06
aF7.5499216715494794e-06
aF7.935059376252004e-06
aF6.409791799692007e-06
aF6.963045169145633e-06
aF6.321148994641427e-06
aF6.923308739295373e-06
aF7.103650997846555e-06
aF6.2202795957907656e-06
aF9.127152271759816e-06
aF6.425075041942107e-06
aF1.2630071395482772e-05
aF7.64162112505008e-06
aF8.191817846053686e-06
aF7.809736789801182e-06
aF9.921880868765024e-06
aF6.153033329890324e-06
aF6.039937337239583e-06
aF6.256959377191006e-06
aF1.237331292568109e-05
aF7.256483420347556e-06
aF6.8316092857947715e-06
aF6.935535333095453e-06
aF7.280936607947717e-06
aF7.332899631598057e-06
aF6.923308739295373e-06
aF6.522887792342748e-06
aF6.73073988694411e-06
aF6.975271762945713e-06
aF1.1257636241423777e-05
aF6.397565205891927e-06
aF8.910130231808393e-06
aF6.321148994641427e-06
aF7.180067209097056e-06
aF6.486208010942508e-06
aF6.770476316794371e-06
aF6.385338612091847e-06
aF5.859595078688401e-06
aF6.501491253192608e-06
aF5.923784696138822e-06
aF6.6787768632937704e-06
aF6.345602182241587e-06
aF7.103650997846555e-06
aF6.975271762945713e-06
aF6.192769759740585e-06
aF6.807156098194611e-06
aF7.320673037797977e-06
aF6.449528229542268e-06
aF6.296695807041266e-06
aF6.807156098194611e-06
aF6.73073988694411e-06
aF6.168316572140425e-06
aF7.5621482653495595e-06
aF6.269185970991086e-06
aF6.498434604742588e-06
aF8.307970487154447e-06
aF6.587077409793169e-06
aF6.024654094989483e-06
aF8.705334785657051e-06
aF6.779646262144431e-06
aF5.859595078688401e-06
aF6.321148994641427e-06
aF7.256483420347556e-06
aF6.412848448142027e-06
aF1.2281613472180488e-05
aF6.4373016357421875e-06
aF6.7429664807441905e-06
aF6.357828776041667e-06
aF6.6023606520432695e-06
aF6.308922400841346e-06
aF6.397565205891927e-06
aF6.69406010554387e-06
aF8.320197080954527e-06
aF6.498434604742588e-06
aF7.461278866498898e-06
aF8.164308010003506e-06
aF7.537695077749399e-06
aF1.1563301086425781e-05
aF1.0771629137870594e-05
aF9.383910741561498e-06
aF9.640669211363182e-06
aF9.897427681164863e-06
aF9.457270304361979e-06
aF1.325362767928686e-05
aF9.976900540865385e-06
aF9.383910741561498e-06
aF1.1437978499974959e-05
aF9.102699084159656e-06
aF9.43893041366186e-06
aF9.665122398963342e-06
aF9.255531506660656e-06
aF9.56119635166266e-06
aF1.9843761737530047e-05
aF9.408363929161658e-06
aF1.8205398168319312e-05
aF1.1743643344976963e-05
aF1.0282565385867389e-05
aF9.46338360126202e-06
aF1.2208253909380008e-05
aF9.921880868765024e-06
aF1.0056373400565906e-05
aF1.0331471761067709e-05
aF1.058823023086939e-05
aF1.0667703090569912e-05
aF9.127152271759816e-06
aF1.0893895075871394e-05
aF9.383910741561498e-06
aF9.744595258663861e-06
aF9.738481961763822e-06
aF1.0765515840970553e-05
aF1.0129732963366387e-05
aF9.335004366361178e-06
aF9.970787243965344e-06
aF1.0667703090569912e-05
aF2.7259190877278645e-05
aF1.1285146077473959e-05
aF1.704998505421174e-05
aF9.897427681164863e-06
aF1.238553951948117e-05
aF1.4201188698793068e-05
aF1.0948914747971754e-05
aF1.5515547532301683e-05
aF9.976900540865385e-06
aF8.974319849258814e-06
aF9.151605459359976e-06
aF1.13829588278746e-05
aF9.714028774163662e-06
aF8.949866661658654e-06
aF9.359457553961338e-06
aF9.591762836162861e-06
aF9.970787243965344e-06
aF1.0282565385867389e-05
aF9.976900540865385e-06
aF1.0178639338566707e-05
aF1.0331471761067709e-05
aF9.408363929161658e-06
aF9.408363929161658e-06
aF1.1156766842573117e-05
aF9.335004366361178e-06
aF9.51228997646234e-06
aF9.51228997646234e-06
aF3.408163021772336e-05
aF9.946334056365184e-06
aF1.3999449901091746e-05
aF8.748127863957332e-06
aF1.0612683418469551e-05
aF1.0331471761067709e-05
aF1.2079874674479166e-05
aF1.0307018573467549e-05
aF1.0386491433168068e-05
aF9.359457553961338e-06
aF9.304437881860978e-06
aF8.974319849258814e-06
aF9.616216023763021e-06
aF1.4464060465494791e-05
aF9.665122398963342e-06
aF9.335004366361178e-06
aF1.3718238243689904e-05
aF9.946334056365184e-06
aF9.053792708959334e-06
aF1.0844988700671074e-05
aF9.310551178761018e-06
aF1.1566357734875801e-05
aF1.0435397808368389e-05
aF9.640669211363182e-06
aF9.970787243965344e-06
aF9.817954821464344e-06
aF9.616216023763021e-06
aF9.102699084159656e-06
aF9.053792708959334e-06
aF9.408363929161658e-06
aF9.353344257061299e-06
aF9.078245896559496e-06
aF9.231078319060496e-06
aF9.359457553961338e-06
aF9.769048446264022e-06
aF9.359457553961338e-06
aF9.61010272686298e-06
aF1.0771629137870594e-05
aF1.0459850995968549e-05
aF1.3076342069185697e-05
aF1.0025806916065705e-05
aF9.408363929161658e-06
aF1.135850564027444e-05
aF9.665122398963342e-06
aF1.2611731504782652e-05
aF1.0844988700671074e-05
aF9.5367431640625e-06
aF9.255531506660656e-06
aF9.946334056365184e-06
aF9.927994165665064e-06
aF9.591762836162861e-06
aF9.151605459359976e-06
aF9.127152271759816e-06
aF1.1462431687575121e-05
aF1.4072809463892228e-05
aF1.049041748046875e-05
aF9.102699084159656e-06
aF1.0056373400565906e-05
aF1.3534839336688701e-05
aF8.998773036858975e-06
aF9.946334056365184e-06
aF2.9973494700896434e-05
aF9.5367431640625e-06
aF9.970787243965344e-06
aF9.720142071063701e-06
aF1.3510386149088541e-05
aF1.0129732963366387e-05
aF9.640669211363182e-06
aF1.1615264110076121e-05
aF9.744595258663861e-06
aF9.793501633864183e-06
aF9.848521305964543e-06
aF1.049041748046875e-05
aF1.1560244437975762e-05
aF1.1743643344976963e-05
aF9.769048446264022e-06
aF1.2024855002378807e-05
aF1.6842132959610375e-05
aF1.1743643344976963e-05
aF1.1670283782176482e-05
aF1.0129732963366387e-05
aF9.053792708959334e-06
aF1.056377704326923e-05
aF8.564728956956129e-06
aF8.949866661658654e-06
aF1.0924461560371594e-05
aF8.870393801958133e-06
aF9.927994165665064e-06
aF9.744595258663861e-06
aF9.353344257061299e-06
aF1.0203092526166867e-05
aF9.970787243965344e-06
aF9.793501633864183e-06
aF1.1743643344976963e-05
aF1.1279032780573918e-05
aF2.29187500782502e-05
aF8.974319849258814e-06
aF1.0001353728465545e-05
aF1.3051888881585537e-05
aF9.720142071063701e-06
aF8.876507098858174e-06
aF1.3308647351387219e-05
aF9.231078319060496e-06
aF1.0331471761067709e-05
aF1.1156766842573117e-05
aF9.689575586563502e-06
aF1.1872022579877805e-05
aF1.325362767928686e-05
aF9.383910741561498e-06
aF1.0771629137870594e-05
aF1.133405245267428e-05
aF8.974319849258814e-06
aF1.0178639338566707e-05
aF9.390024038461539e-06
aF9.408363929161658e-06
aF1.3027435693985377e-05
aF1.2232707096980168e-05
aF1.0741062653370393e-05
aF9.072132599659455e-06
aF1.1205673217773438e-05
aF1.4023903088691906e-05
aF9.61010272686298e-06
aF9.182171943860176e-06
aF1.0386491433168068e-05
aF9.56119635166266e-06
aF1.038037813626803e-05
aF8.943753364758613e-06
aF1.238553951948117e-05
aF1.0796082325470754e-05
aF9.432817116761818e-06
aF9.200511834560297e-06
aF1.3174154819586338e-05
aF1.3333100538987379e-05
aF1.5564453907502004e-05
aF9.157718756260016e-06
aF9.46338360126202e-06
aF9.078245896559496e-06
a.