(lp0
F1.672506332397461e-05
aF3.898143768310547e-06
aF4.625320434570312e-06
aF3.0994415283203125e-06
aF3.9279460906982425e-06
aF3.1232833862304687e-06
aF7.921457290649414e-06
aF7.176399230957032e-06
aF3.1232833862304687e-06
aF8.547306060791016e-06
aF3.1948089599609376e-06
aF3.6001205444335937e-06
aF3.3736228942871095e-06
aF3.5524368286132813e-06
aF3.224611282348633e-06
aF3.1232833862304687e-06
aF3.6776065826416017e-06
aF4.905462265014648e-06
aF3.2007694244384767e-06
aF3.3497810363769533e-06
aF3.129243850708008e-06
aF3.427267074584961e-06
aF3.3259391784667967e-06
aF3.153085708618164e-06
aF3.653764724731445e-06
aF4.303455352783203e-06
aF4.1961669921875e-06
aF3.147125244140625e-06
aF3.0994415283203125e-06
aF3.2007694244384767e-06
aF3.147125244140625e-06
aF3.1054019927978516e-06
aF5.751848220825195e-06
aF3.1232833862304687e-06
aF3.17692756652832e-06
aF4.374980926513672e-06
aF6.425380706787109e-06
aF3.254413604736328e-06
aF3.1232833862304687e-06
aF3.1232833862304687e-06
aF3.147125244140625e-06
aF4.076957702636719e-06
aF6.622076034545898e-06
aF3.6716461181640626e-06
aF8.225440979003906e-06
aF3.153085708618164e-06
aF3.6001205444335937e-06
aF3.3259391784667967e-06
aF6.0498714447021484e-06
aF6.699562072753907e-06
aF3.147125244140625e-06
aF3.17692756652832e-06
aF3.17692756652832e-06
aF3.1232833862304687e-06
aF3.2961368560791014e-06
aF3.129243850708008e-06
aF3.1232833862304687e-06
aF3.0755996704101563e-06
aF3.153085708618164e-06
aF3.5524368286132813e-06
aF3.1232833862304687e-06
aF3.1232833862304687e-06
aF3.1232833862304687e-06
aF3.2007694244384767e-06
aF4.851818084716797e-06
aF3.9279460906982425e-06
aF3.850460052490234e-06
aF3.224611282348633e-06
aF3.0994415283203125e-06
aF3.1948089599609376e-06
aF3.1709671020507814e-06
aF4.124641418457031e-06
aF3.17692756652832e-06
aF3.7550926208496094e-06
aF3.224611282348633e-06
aF3.2722949981689452e-06
aF3.1232833862304687e-06
aF3.17692756652832e-06
aF3.3736228942871095e-06
aF3.17692756652832e-06
aF5.877017974853515e-06
aF3.1709671020507814e-06
aF3.874301910400391e-06
aF4.023313522338867e-06
aF3.129243850708008e-06
aF6.926059722900391e-06
aF3.1709671020507814e-06
aF3.1232833862304687e-06
aF3.0994415283203125e-06
aF3.17692756652832e-06
aF6.073713302612305e-06
aF3.6954879760742188e-06
aF3.153085708618164e-06
aF3.427267074584961e-06
aF3.1232833862304687e-06
aF3.17692756652832e-06
aF3.999471664428711e-06
aF3.153085708618164e-06
aF3.153085708618164e-06
aF5.048513412475586e-06
aF3.1948089599609376e-06
aF3.153085708618164e-06
aF5.877017974853515e-06
aF3.129243850708008e-06
aF3.1709671020507814e-06
aF3.49879264831543e-06
aF3.0994415283203125e-06
aF4.345178604125977e-06
aF3.1232833862304687e-06
aF3.129243850708008e-06
aF3.3497810363769533e-06
aF3.17692756652832e-06
aF3.1232833862304687e-06
aF5.799531936645508e-06
aF3.1232833862304687e-06
aF3.3736228942871095e-06
aF5.477666854858399e-06
aF3.6776065826416017e-06
aF3.6478042602539064e-06
aF3.6001205444335937e-06
aF3.1232833862304687e-06
aF3.147125244140625e-06
aF3.147125244140625e-06
aF3.4749507904052733e-06
aF3.3259391784667967e-06
aF3.153085708618164e-06
aF3.1232833862304687e-06
aF3.1232833862304687e-06
aF4.148483276367187e-06
aF3.17692756652832e-06
aF3.147125244140625e-06
aF3.147125244140625e-06
aF3.49879264831543e-06
aF3.153085708618164e-06
aF3.3497810363769533e-06
aF3.153085708618164e-06
aF3.1232833862304687e-06
aF3.129243850708008e-06
aF3.7729740142822264e-06
aF4.595518112182617e-06
aF3.17692756652832e-06
aF3.1232833862304687e-06
aF4.947185516357422e-06
aF4.750490188598633e-06
aF3.1709671020507814e-06
aF3.999471664428711e-06
aF3.248453140258789e-06
aF3.153085708618164e-06
aF3.17692756652832e-06
aF3.3497810363769533e-06
aF3.4034252166748048e-06
aF7.87973403930664e-06
aF4.4226646423339845e-06
aF3.147125244140625e-06
aF3.147125244140625e-06
aF3.129243850708008e-06
aF3.1232833862304687e-06
aF3.2961368560791014e-06
aF3.522634506225586e-06
aF5.453824996948242e-06
aF3.451108932495117e-06
aF3.17692756652832e-06
aF3.2007694244384767e-06
aF3.969669342041015e-06
aF3.17692756652832e-06
aF3.898143768310547e-06
aF5.900859832763672e-06
aF3.451108932495117e-06
aF4.100799560546875e-06
aF3.1232833862304687e-06
aF3.528594970703125e-06
aF5.900859832763672e-06
aF3.725290298461914e-06
aF3.6716461181640626e-06
aF3.3020973205566405e-06
aF4.601478576660156e-06
aF3.147125244140625e-06
aF3.224611282348633e-06
aF3.153085708618164e-06
aF4.953145980834961e-06
aF3.147125244140625e-06
aF3.725290298461914e-06
aF3.49879264831543e-06
aF3.147125244140625e-06
aF3.147125244140625e-06
aF3.153085708618164e-06
aF3.147125244140625e-06
aF3.1709671020507814e-06
aF3.1232833862304687e-06
aF4.923343658447265e-06
aF3.3020973205566405e-06
aF5.7220458984375e-06
aF3.1232833862304687e-06
aF3.153085708618164e-06
aF3.17692756652832e-06
aF3.999471664428711e-06
aF3.1709671020507814e-06
aF3.1232833862304687e-06
aF3.147125244140625e-06
aF3.6001205444335937e-06
aF2.203108389166337e-06
aF2.203108389166337e-06
aF2.178964735586432e-06
aF2.1910365623763843e-06
aF2.203108389166337e-06
aF2.227252042746242e-06
aF2.4686885785452927e-06
aF2.1910365623763843e-06
aF2.3932396611080894e-06
aF4.152708415743671e-06
aF2.3690960075281843e-06
aF2.999848957303204e-06
aF2.2151802159562895e-06
aF2.4807604053352453e-06
aF4.243247116668315e-06
aF2.3932396611080894e-06
aF2.1910365623763843e-06
aF2.2151802159562895e-06
aF2.6437300669996045e-06
aF2.175946778888944e-06
aF2.559227279469937e-06
aF3.6607814740531052e-06
aF2.631658240209652e-06
aF5.052059511595134e-06
aF3.03908239437055e-06
aF2.6708916772769975e-06
aF2.2513956963261473e-06
aF2.366078050830696e-06
aF4.140636588953718e-06
aF2.3419343972507913e-06
aF2.2151802159562895e-06
aF2.7584124215041534e-06
aF2.722196941134296e-06
aF3.0119207840931566e-06
aF2.1910365623763843e-06
aF2.2000904324688488e-06
aF2.1910365623763843e-06
aF2.2664854798135876e-06
aF2.1910365623763843e-06
aF2.227252042746242e-06
aF2.1910365623763843e-06
aF2.698053287554391e-06
aF2.1910365623763843e-06
aF2.227252042746242e-06
aF2.188018605678896e-06
aF2.1910365623763843e-06
aF2.1910365623763843e-06
aF2.203108389166337e-06
aF2.1910365623763843e-06
aF2.227252042746242e-06
aF2.188018605678896e-06
aF2.3932396611080894e-06
aF2.188018605678896e-06
aF2.178964735586432e-06
aF2.1638749520989914e-06
aF2.3570241807382317e-06
aF2.1910365623763843e-06
aF2.178964735586432e-06
aF2.1910365623763843e-06
aF2.3540062240407435e-06
aF3.2805189301696006e-06
aF2.227252042746242e-06
aF4.1134749786763255e-06
aF2.1910365623763843e-06
aF3.316734410539458e-06
aF2.2000904324688488e-06
aF3.3288062373294106e-06
aF2.1910365623763843e-06
aF2.1638749520989914e-06
aF2.366078050830696e-06
aF3.4404706351364716e-06
aF3.7724458718601663e-06
aF2.203108389166337e-06
aF2.203108389166337e-06
aF2.175946778888944e-06
aF2.3781498776206487e-06
aF2.5712991062598894e-06
aF2.3540062240407435e-06
aF2.175946778888944e-06
aF2.175946778888944e-06
aF2.2151802159562895e-06
aF2.2151802159562895e-06
aF2.68296350406695e-06
aF2.290629133393493e-06
aF2.821789512151404e-06
aF2.2664854798135876e-06
aF2.203108389166337e-06
aF3.08736970153036e-06
aF2.1668929087964795e-06
aF4.3911269948452335e-06
aF2.3570241807382317e-06
aF2.178964735586432e-06
aF2.7342687679242486e-06
aF2.175946778888944e-06
aF2.203108389166337e-06
aF2.175946778888944e-06
aF2.2151802159562895e-06
aF2.1910365623763843e-06
aF4.125546805466278e-06
aF2.1910365623763843e-06
aF2.188018605678896e-06
aF2.2000904324688488e-06
aF2.2151802159562895e-06
aF2.68296350406695e-06
aF2.203108389166337e-06
aF4.13761863225623e-06
aF2.188018605678896e-06
aF2.178964735586432e-06
aF2.2151802159562895e-06
aF2.2151802159562895e-06
aF2.188018605678896e-06
aF2.2151802159562895e-06
aF2.5320656691925435e-06
aF2.1910365623763843e-06
aF2.188018605678896e-06
aF2.2000904324688488e-06
aF2.6588198504870453e-06
aF2.188018605678896e-06
aF2.178964735586432e-06
aF2.188018605678896e-06
aF2.178964735586432e-06
aF2.1910365623763843e-06
aF2.3540062240407435e-06
aF2.227252042746242e-06
aF4.620491703854331e-06
aF2.45661675175534e-06
aF2.175946778888944e-06
aF2.2151802159562895e-06
aF2.151803125309039e-06
aF4.125546805466278e-06
aF2.1910365623763843e-06
aF2.7614303782016415e-06
aF2.188018605678896e-06
aF3.606458253498319e-06
aF2.519993842402591e-06
aF2.2151802159562895e-06
aF2.1638749520989914e-06
aF2.188018605678896e-06
aF2.2151802159562895e-06
aF2.4807604053352453e-06
aF2.3419343972507913e-06
aF2.188018605678896e-06
aF2.1910365623763843e-06
aF2.188018605678896e-06
aF2.203108389166337e-06
aF2.175946778888944e-06
aF4.140636588953718e-06
aF2.175946778888944e-06
aF2.366078050830696e-06
aF2.1910365623763843e-06
aF2.293647090090981e-06
aF4.1134749786763255e-06
aF2.203108389166337e-06
aF2.175946778888944e-06
aF2.3932396611080894e-06
aF2.203108389166337e-06
aF2.175946778888944e-06
aF2.203108389166337e-06
aF2.175946778888944e-06
aF2.203108389166337e-06
aF2.1910365623763843e-06
aF2.178964735586432e-06
aF2.203108389166337e-06
aF2.2151802159562895e-06
aF2.1910365623763843e-06
aF2.175946778888944e-06
aF2.188018605678896e-06
aF2.178964735586432e-06
aF2.2151802159562895e-06
aF2.188018605678896e-06
aF2.2544136530236354e-06
aF2.227252042746242e-06
aF2.203108389166337e-06
aF2.203108389166337e-06
aF5.468537535848497e-06
aF2.2151802159562895e-06
aF2.3540062240407435e-06
aF2.203108389166337e-06
aF4.176852069323576e-06
aF2.175946778888944e-06
aF2.1638749520989914e-06
aF2.178964735586432e-06
aF2.2302699994437302e-06
aF2.178964735586432e-06
aF2.3419343972507913e-06
aF2.1910365623763843e-06
aF2.405311487898042e-06
aF2.227252042746242e-06
aF4.164780242533624e-06
aF2.2000904324688488e-06
aF4.366983341265328e-06
aF3.7724458718601663e-06
aF2.1910365623763843e-06
aF2.4173833146879946e-06
aF2.203108389166337e-06
aF2.175946778888944e-06
aF2.203108389166337e-06
aF3.2775009734721124e-06
aF4.1134749786763255e-06
aF2.203108389166337e-06
aF1.8649182077181541e-06
aF1.8730001934504105e-06
aF1.8730001934504105e-06
aF1.8891641649149231e-06
aF1.8810821791826668e-06
aF2.0083734544657044e-06
aF1.974025015103615e-06
aF1.8730001934504105e-06
aF1.8730001934504105e-06
aF1.8649182077181541e-06
aF1.8568362219858978e-06
aF1.8810821791826668e-06
aF1.8649182077181541e-06
aF2.024537425930217e-06
aF1.86289771128509e-06
aF1.8730001934504105e-06
aF1.8810821791826668e-06
aF1.86289771128509e-06
aF1.8972461506471795e-06
aF1.8891641649149231e-06
aF1.9901889865681275e-06
aF4.34810832395392e-06
aF1.8568362219858978e-06
aF1.8709796970173465e-06
aF1.86289771128509e-06
aF2.626645362983316e-06
aF1.8568362219858978e-06
aF1.86289771128509e-06
aF1.8548157255528336e-06
aF3.543950743594412e-06
aF1.8548157255528336e-06
aF1.8730001934504105e-06
aF1.8810821791826668e-06
aF1.8730001934504105e-06
aF1.8568362219858978e-06
aF1.9922094830011917e-06
aF1.974025015103615e-06
aF2.788285077628443e-06
aF1.8730001934504105e-06
aF3.1620769177452994e-06
aF1.86289771128509e-06
aF2.854961459919558e-06
aF3.523745779263771e-06
aF2.0083734544657044e-06
aF1.8891641649149231e-06
aF1.8730001934504105e-06
aF1.8649182077181541e-06
aF1.9396765757415253e-06
aF1.8810821791826668e-06
aF1.8730001934504105e-06
aF2.7963670633606993e-06
aF3.772266840530654e-06
aF2.0083734544657044e-06
aF1.8810821791826668e-06
aF1.8487542362536415e-06
aF1.8891641649149231e-06
aF2.4670261447712525e-06
aF1.8649182077181541e-06
aF1.883102675615731e-06
aF1.8568362219858978e-06
aF1.8649182077181541e-06
aF1.8730001934504105e-06
aF1.8810821791826668e-06
aF1.86289771128509e-06
aF1.8649182077181541e-06
aF1.9073486328125e-06
aF2.1518287012132546e-06
aF1.8487542362536415e-06
aF1.8810821791826668e-06
aF1.8649182077181541e-06
aF2.8650639420848784e-06
aF1.957861043639102e-06
aF1.8548157255528336e-06
aF1.931594590009269e-06
aF1.8548157255528336e-06
aF1.8649182077181541e-06
aF1.8730001934504105e-06
aF1.8730001934504105e-06
aF3.5338482614290916e-06
aF1.8810821791826668e-06
aF1.9922094830011917e-06
aF1.8649182077181541e-06
aF1.8649182077181541e-06
aF1.8487542362536415e-06
aF2.2629560050317796e-06
aF1.8730001934504105e-06
aF1.86289771128509e-06
aF1.8649182077181541e-06
aF1.8649182077181541e-06
aF1.8911846613479873e-06
aF2.2205255799374337e-06
aF1.8730001934504105e-06
aF1.86289771128509e-06
aF1.8467337398205773e-06
aF1.8568362219858978e-06
aF2.0346399080955376e-06
aF2.0588858652923066e-06
aF1.8911846613479873e-06
aF1.8911846613479873e-06
aF1.8810821791826668e-06
aF1.86289771128509e-06
aF2.499354087700278e-06
aF2.186177140575344e-06
aF2.000291468733448e-06
aF3.584360672255694e-06
aF1.8649182077181541e-06
aF2.093234304654396e-06
aF1.8972461506471795e-06
aF1.8992666470802437e-06
aF2.0346399080955376e-06
aF1.8730001934504105e-06
aF1.8810821791826668e-06
aF2.0164554401979607e-06
aF2.3316528837559586e-06
aF1.9154306185447563e-06
aF1.8810821791826668e-06
aF1.8730001934504105e-06
aF1.8548157255528336e-06
aF1.8810821791826668e-06
aF1.9416970721745895e-06
aF3.0933800390211204e-06
aF1.8568362219858978e-06
aF1.8649182077181541e-06
aF2.1275827440164856e-06
aF2.1700131691108315e-06
aF2.974170749470339e-06
aF2.6953422417074945e-06
aF1.883102675615731e-06
aF1.8810821791826668e-06
aF1.8810821791826668e-06
aF1.8649182077181541e-06
aF2.9903347209348518e-06
aF1.8487542362536415e-06
aF2.9822527352025954e-06
aF1.9053281363794358e-06
aF2.161931183378575e-06
aF2.0083734544657044e-06
aF2.1942591263076005e-06
aF1.8568362219858978e-06
aF2.3801447981494966e-06
aF1.8730001934504105e-06
aF3.998562441033832e-06
aF2.5337025270623674e-06
aF1.8649182077181541e-06
aF2.0851523189221398e-06
aF1.9154306185447563e-06
aF2.6690757880776617e-06
aF1.8730001934504105e-06
aF1.86289771128509e-06
aF1.8891641649149231e-06
aF1.883102675615731e-06
aF2.432677705409163e-06
aF1.8649182077181541e-06
aF2.3316528837559586e-06
aF1.8568362219858978e-06
aF2.042721893827794e-06
aF1.8487542362536415e-06
aF1.8649182077181541e-06
aF1.9901889865681275e-06
aF1.8548157255528336e-06
aF1.9841274972689354e-06
aF2.483190116235765e-06
aF1.8649182077181541e-06
aF1.8649182077181541e-06
aF1.9416970721745895e-06
aF1.8467337398205773e-06
aF1.86289771128509e-06
aF1.8649182077181541e-06
aF2.000291468733448e-06
aF2.3053864301261254e-06
aF2.0851523189221398e-06
aF1.8810821791826668e-06
aF1.8730001934504105e-06
aF1.9922094830011917e-06
aF2.0326194116624734e-06
aF1.8730001934504105e-06
aF1.8810821791826668e-06
aF2.1437467154809983e-06
aF1.8649182077181541e-06
aF1.8487542362536415e-06
aF2.22860756566969e-06
aF1.8730001934504105e-06
aF1.8548157255528336e-06
aF1.8649182077181541e-06
aF1.9073486328125e-06
aF1.982107000835871e-06
aF3.5257662756968353e-06
aF1.8568362219858978e-06
aF2.626645362983316e-06
aF1.8548157255528336e-06
aF2.000291468733448e-06
aF2.000291468733448e-06
aF1.8810821791826668e-06
aF1.8649182077181541e-06
aF2.066967851024563e-06
aF1.8548157255528336e-06
aF1.9073486328125e-06
aF1.8891641649149231e-06
aF1.8992666470802437e-06
aF3.8207587549241926e-06
aF6.095618958685808e-06
aF1.7068947956060908e-06
aF2.1776575951059913e-06
aF1.7129691543093153e-06
aF1.7008204369028663e-06
aF2.0835050352060113e-06
aF1.7129691543093153e-06
aF1.7008204369028663e-06
aF1.7251178717157644e-06
aF1.7008204369028663e-06
aF1.6947460781996418e-06
aF1.7008204369028663e-06
aF1.708413385281897e-06
aF2.476819761239799e-06
aF2.3507768181478902e-06
aF1.7068947956060908e-06
aF2.769907568670382e-06
aF1.9362018366528164e-06
aF1.8162332522641322e-06
aF1.86027235286251e-06
aF1.949869143735072e-06
aF4.006039564776573e-06
aF1.8283819696705812e-06
aF1.7068947956060908e-06
aF1.8223076109673567e-06
aF1.8921627360544386e-06
aF1.6947460781996418e-06
aF1.7068947956060908e-06
aF1.7144877439851215e-06
aF1.7144877439851215e-06
aF1.7251178717157644e-06
aF1.69930184722706e-06
aF1.8223076109673567e-06
aF1.7068947956060908e-06
aF1.942276195356041e-06
aF1.802565945181877e-06
aF4.350759421184564e-06
aF1.8223076109673567e-06
aF3.1905569088686805e-06
aF1.7129691543093153e-06
aF1.9043114534608876e-06
aF1.7448595375012441e-06
aF1.7190435130125399e-06
aF3.2027056262751296e-06
aF1.7144877439851215e-06
aF1.6947460781996418e-06
aF1.7008204369028663e-06
aF1.7646012032867237e-06
aF2.0060569617398983e-06
aF1.6886717194964172e-06
aF1.7129691543093153e-06
aF1.7008204369028663e-06
aF1.7190435130125399e-06
aF1.687153129820611e-06
aF1.8466050457802548e-06
aF1.6825973607931927e-06
aF1.7266364613915706e-06
aF1.7129691543093153e-06
aF1.6947460781996418e-06
aF1.7448595375012441e-06
aF1.7068947956060908e-06
aF1.6947460781996418e-06
aF2.7015710332591065e-06
aF2.3249607936591858e-06
aF1.7144877439851215e-06
aF1.8344563283738057e-06
aF1.6810787711173865e-06
aF1.8344563283738057e-06
aF1.8283819696705812e-06
aF1.930127477949592e-06
aF1.8344563283738057e-06
aF1.7129691543093153e-06
aF1.7448595375012441e-06
aF1.6825973607931927e-06
aF1.7008204369028663e-06
aF2.2034736195946953e-06
aF2.2991447691704817e-06
aF1.7068947956060908e-06
aF1.7068947956060908e-06
aF1.8283819696705812e-06
aF1.7008204369028663e-06
aF1.7008204369028663e-06
aF1.7068947956060908e-06
aF1.6886717194964172e-06
aF1.962017861141521e-06
aF1.8344563283738057e-06
aF1.7008204369028663e-06
aF2.3750742529607883e-06
aF1.6947460781996418e-06
aF1.7068947956060908e-06
aF1.7008204369028663e-06
aF2.394815918746268e-06
aF1.7008204369028663e-06
aF1.6947460781996418e-06
aF1.6947460781996418e-06
aF1.687153129820611e-06
aF1.7068947956060908e-06
aF1.7190435130125399e-06
aF1.687153129820611e-06
aF1.7008204369028663e-06
aF1.720562102688346e-06
aF1.732710820094795e-06
aF3.5292024065734473e-06
aF1.720562102688346e-06
aF1.999982603036674e-06
aF1.7068947956060908e-06
aF1.7129691543093153e-06
aF2.1396928532108378e-06
aF1.9103858121641124e-06
aF1.720562102688346e-06
aF1.7008204369028663e-06
aF1.8207890212915505e-06
aF1.7068947956060908e-06
aF2.0060569617398983e-06
aF1.69930184722706e-06
aF1.7008204369028663e-06
aF1.8466050457802548e-06
aF1.9240531192463674e-06
aF2.1017281113156847e-06
aF1.7129691543093153e-06
aF1.6947460781996418e-06
aF3.2361145991428643e-06
aF1.6886717194964172e-06
aF1.826863379994775e-06
aF5.293803609860171e-06
aF1.962017861141521e-06
aF1.732710820094795e-06
aF3.479088947271845e-06
aF2.3112934865769307e-06
aF2.2991447691704817e-06
aF1.7008204369028663e-06
aF1.848123635456061e-06
aF1.987833885630225e-06
aF1.6947460781996418e-06
aF1.7068947956060908e-06
aF1.720562102688346e-06
aF2.1655088776995422e-06
aF3.0766626831832204e-06
aF1.8541979941592855e-06
aF1.968092219844745e-06
aF2.223215285380175e-06
aF1.8420492767528365e-06
aF1.7524524858802746e-06
aF1.7068947956060908e-06
aF1.6886717194964172e-06
aF1.7144877439851215e-06
aF2.081986445530205e-06
aF1.6825973607931927e-06
aF2.241438361489849e-06
aF1.6886717194964172e-06
aF1.7129691543093153e-06
aF2.2171409266769508e-06
aF1.687153129820611e-06
aF2.7258684680720046e-06
aF1.6947460781996418e-06
aF1.7129691543093153e-06
aF1.7190435130125399e-06
aF1.8587537631867038e-06
aF7.293786212896845e-06
aF1.6947460781996418e-06
aF2.267254385978553e-06
aF2.3629255355543393e-06
aF1.6947460781996418e-06
aF1.6810787711173865e-06
aF1.8800140186479895e-06
aF1.69930184722706e-06
aF1.7144877439851215e-06
aF1.814714662588326e-06
aF2.338628100741441e-06
aF1.917978760543143e-06
aF1.7190435130125399e-06
aF1.7129691543093153e-06
aF1.943794785031847e-06
aF1.8921627360544386e-06
aF2.5603421934091363e-06
aF1.7266364613915706e-06
aF1.8283819696705812e-06
aF1.720562102688346e-06
aF1.8086403038851015e-06
aF1.7524524858802746e-06
aF1.848123635456061e-06
aF1.6947460781996418e-06
aF2.2171409266769508e-06
aF1.8982370947576631e-06
aF2.305219127873706e-06
aF1.8663467115657345e-06
aF1.8405306870770303e-06
aF1.7144877439851215e-06
aF1.8207890212915505e-06
aF1.872421070268959e-06
aF1.9240531192463674e-06
aF2.9931402510138835e-06
aF2.349258228472084e-06
aF1.6932274885238356e-06
aF2.478338350915605e-06
aF1.7311922304189889e-06
aF3.184482550165456e-06
aF1.8283819696705812e-06
aF1.6947460781996418e-06
aF1.7068947956060908e-06
a.