(lp0
F0.11999069154262543
aF0.15460119247436524
aF0.1307617425918579
aF0.1247280756632487
aF0.13596827189127605
aF0.11816086769104003
aF0.1595185915629069
aF0.13367406527201334
aF0.12056554853916168
aF0.19134755432605743
aF0.12489620844523112
aF0.20750299521854945
aF0.12394347190856933
aF0.13924993574619293
aF0.11914780735969543
aF0.1377875328063965
aF0.11824625333150228
aF0.12097963690757751
aF0.11854106585184733
aF0.11509594321250916
aF0.12826986312866212
aF0.15737492243448895
aF0.11825193464756012
aF0.11635905504226685
aF0.13241155445575714
aF0.142633318901062
aF0.18535739580790203
aF0.12256748974323273
aF0.12625500559806824
aF0.12397972742716472
aF0.12353955209255219
aF0.11021072069803874
aF0.13686268031597137
aF0.11752567291259766
aF0.13584941228230793
aF0.12320604920387268
aF0.11984787881374359
aF0.13195327123006184
aF0.11817399660746257
aF0.12401005427042643
aF0.11582286655902863
aF0.12649357318878174
aF0.12740453084309897
aF0.13593943417072296
aF0.13225552241007488
aF0.11780236661434174
aF0.13370218873023987
aF0.12958824634552002
aF0.17540079752604168
aF0.1378578096628189
aF0.10763368010520935
aF0.12871479988098145
aF0.12417036294937134
aF0.11906850337982178
aF0.12962106068929036
aF0.11887946128845214
aF0.13048925399780273
aF0.11529161135355631
aF0.12269679705301921
aF0.12618540128072103
aF0.11606231331825256
aF0.123148113489151
aF0.11696968972682953
aF0.12451168894767761
aF0.12536306381225587
aF0.13090046246846518
aF0.12950468063354492
aF0.1284204641977946
aF0.11841145157814026
aF0.12387873331705729
aF0.1549865404764811
aF0.10953612327575683
aF0.12153739929199218
aF0.12445805966854095
aF0.13359947204589845
aF0.11751774152119955
aF0.13452085426875524
aF0.12833654085795085
aF0.12957639694213868
aF0.12317620913187663
aF0.13440273602803549
aF0.12874393165111542
aF0.11552143096923828
aF0.12339305877685547
aF0.12481026649475098
aF0.15543363775525773
aF0.1190301924943924
aF0.11647745768229166
aF0.13726174036661784
aF0.1165580004453659
aF0.1409388780593872
aF0.11488086382548014
aF0.12869439125061036
aF0.16206749847957067
aF0.12041682004928589
aF0.11541955173015594
aF0.11915399134159088
aF0.12167443335056305
aF0.11998492876688639
aF0.1230593204498291
aF0.12088112831115723
aF0.11642399430274963
aF0.13046136498451233
aF0.12187159856160482
aF0.12971954345703124
aF0.12072443962097168
aF0.1313803791999817
aF0.11874900758266449
aF0.12346293131510416
aF0.12803373336791993
aF0.13507875800132751
aF0.12160739898681641
aF0.11746649444103241
aF0.12799772194453649
aF0.11716380715370178
aF0.12175044417381287
aF0.13281787931919098
aF0.11876106262207031
aF0.12327580451965332
aF0.12486493587493896
aF0.1221378743648529
aF0.11288093030452728
aF0.14461612701416016
aF0.12172126770019531
aF0.12217094004154205
aF0.11922233899434408
aF0.1175159364938736
aF0.11639687418937683
aF0.12256606419881184
aF0.11502505751217112
aF0.1112082451581955
aF0.11400973002115886
aF0.11878849565982819
aF0.12664839426676433
aF0.11065168678760529
aF0.12411424517631531
aF0.11944592793782552
aF0.11946037411689758
aF0.1158957322438558
aF0.12097564765385219
aF0.12563233375549315
aF0.12723612785339355
aF0.12465043365955353
aF0.12102670328957695
aF0.1320437490940094
aF0.12126482234281652
aF0.11475931107997894
aF0.11337992350260416
aF0.11974045435587564
aF0.12168192863464355
aF0.13502472241719563
aF0.13874033292134602
aF0.15209132830301922
aF0.12439859708150228
aF0.11997033754984537
aF0.12224237620830536
aF0.1220903237660726
aF0.11893431842327118
aF0.11613486707210541
aF0.12634560267130535
aF0.12120370303883272
aF0.13169905344645183
aF0.12060987154642741
aF0.12450126012166342
aF0.13382352193196614
aF0.11758186022440592
aF0.12327459653218588
aF0.11914434432983398
aF0.11211957037448883
aF0.1086746056874593
aF0.1185195287068685
aF0.1164674460887909
aF0.12326960563659668
aF0.11317551136016846
aF0.14536832173665365
aF0.12081638971964519
aF0.1152379959821701
aF0.1176492691040039
aF0.11592772801717123
aF0.13650143146514893
aF0.1272667407989502
aF0.1205897331237793
aF0.11621313095092774
aF0.12543325126171112
aF0.11293880144755046
aF0.12769369781017303
aF0.11042478879292807
aF0.12082320849100749
aF0.12872118949890138
aF0.12751563957759313
aF0.12152865727742514
aF0.12146205902099609
aF0.12717339197794597
aF0.12290573120117188
aF0.1333795040845871
aF0.1284404754638672
aF0.11951519648234049
aF0.11760233243306478
aF0.12602653503417968
aF0.12862606048583985
aF0.22713249921798706
aF0.24347227269952948
aF0.2518000169233842
aF0.26224155859513715
aF0.2512701474703275
aF0.2614057280800559
aF0.23413308461507162
aF0.2624805927276611
aF0.27044528180902655
aF0.23271138017827814
aF0.25148457288742065
aF0.24121707677841187
aF0.2859572714025324
aF0.25420849323272704
aF0.2688710927963257
aF0.2488781972364946
aF0.2466783324877421
aF0.2474139134089152
aF0.2598508397738139
aF0.23592241605122885
aF0.25200849771499634
aF0.29798800295049493
aF0.2677954543720592
aF0.25312428040937945
aF0.2565153728831898
aF0.23203599452972412
aF0.284185452894731
aF0.25625767310460407
aF0.25226908922195435
aF0.2511948347091675
aF0.2759349129416726
aF0.23988799615339798
aF0.253485894203186
aF0.2752576307816939
aF0.24047017097473145
aF0.21779500354420056
aF0.23929665486017862
aF0.22579650084177652
aF0.24495761211101824
aF0.23438807634206918
aF0.25741525491078693
aF0.2471090013330633
aF0.22920125722885132
aF0.219679594039917
aF0.24027681350708008
aF0.24377514918645224
aF0.27199890396811743
aF0.24863733847935995
aF0.2459568977355957
aF0.2352637160908092
aF0.20955383777618408
aF0.22738858064015707
aF0.25501216541637073
aF0.22459673881530762
aF0.23086891571680704
aF0.24981190941550516
aF0.24466524521509805
aF0.23030499978498978
aF0.2347421646118164
aF0.2523633566769687
aF0.26812084515889484
aF0.23081090233542703
aF0.2517937696897067
aF0.26041063395413483
aF0.25295281410217285
aF0.2514711726795543
aF0.25953616698582965
aF0.25557059049606323
aF0.27498100020668725
aF0.24389266967773438
aF0.26749155738136987
aF0.25679634014765423
aF0.24612059195836386
aF0.2610486030578613
aF0.2612278461456299
aF0.26923235979947174
aF0.24896654215725986
aF0.24722441037495932
aF0.2611433267593384
aF0.25361954082142224
aF0.24639708995819093
aF0.28236599401994184
aF0.26823673645655316
aF0.2547130768115704
aF0.27190782807090064
aF0.26079981327056884
aF0.23044564507224344
aF0.24387691418329874
aF0.24604340394337973
aF0.2711870887062766
aF0.2431663473447164
aF0.2826241652170817
aF0.24779846451499246
aF0.262322642586448
aF0.26011141141255695
aF0.26445208896290173
aF0.26671635020862927
aF0.27171166737874347
aF0.2589552601178487
aF0.25467345931313257
aF0.23424217917702414
aF0.2765861988067627
aF0.24866483608881632
aF0.2235941688219706
aF0.23432958126068115
aF0.25363991657892865
aF0.26494541168212893
aF0.24704517920811972
aF0.23267245292663574
aF0.2418605089187622
aF0.2376739111813632
aF0.24192708188837225
aF0.23209166526794434
aF0.2567764123280843
aF0.24156637625260788
aF0.2342763344446818
aF0.25508627024563874
aF0.26865800221761066
aF0.2405360828746449
aF0.258747014132413
aF0.2422780990600586
aF0.2617016077041626
aF0.2554410696029663
aF0.23084718530828302
aF0.24512759844462076
aF0.2375241843136874
aF0.2516595450314609
aF0.23190136389298874
aF0.24208176136016846
aF0.24608675638834634
aF0.23989907178011807
aF0.2563572580164129
aF0.24113678932189941
aF0.22562263228676535
aF0.25038890838623046
aF0.23653624455134073
aF0.22496091235767712
aF0.24284900318492542
aF0.24789508906277744
aF0.25188346342606976
aF0.2438694563778964
aF0.25242340564727783
aF0.24326092004776
aF0.23664474487304688
aF0.24273354356939142
aF0.23869319395585495
aF0.2302701656634991
aF0.2410892645517985
aF0.2543265452751747
aF0.2524491006677801
aF0.20805536616932263
aF0.23891725142796835
aF0.24685808022816977
aF0.23805801073710123
aF0.2411700812253085
aF0.24053874882784756
aF0.23789825042088827
aF0.22580764510414816
aF0.24115958213806152
aF0.26094482161782007
aF0.23294453187422318
aF0.2407841899178245
aF0.22447667519251505
aF0.25367682630365546
aF0.2384030818939209
aF0.25208740234375
aF0.2262137532234192
aF0.24819144335660068
aF0.26022382577260333
aF0.24502028118480335
aF0.2565488165075129
aF0.21813035011291504
aF0.2543784488331188
aF0.24058680534362792
aF0.23242849111557007
aF0.2543925841649373
aF0.24770591656366983
aF0.22829181497747247
aF0.2373033364613851
aF0.23078998652371494
aF0.2265914770273062
aF0.22816582520802817
aF0.20831799507141113
aF0.25775690512223676
aF0.2602935487573797
aF0.25800318717956544
aF0.24386720657348632
aF0.26513199372725055
aF0.25303030014038086
aF0.2233508283441717
aF0.25719707662409
aF0.25392915805180866
aF0.25135400078513404
aF0.21570142110188803
aF0.23710372231223367
aF0.24416670799255372
aF0.22784872488542038
aF0.25614300641146576
aF0.241502891887318
aF0.23168649673461914
aF0.39213472604751587
aF0.37187743186950684
aF0.3202093839645386
aF0.38588887453079224
aF0.3777895654950823
aF0.46361613273620605
aF0.3399768935309516
aF0.3920571406682332
aF0.3545610010623932
aF0.35156339406967163
aF0.39112857409885954
aF0.41556572914123535
aF0.34958856446402414
aF0.3242667615413666
aF0.3168508665902274
aF0.38317936658859253
aF0.44294813701084684
aF0.38686975836753845
aF0.32340966330634224
aF0.39350512623786926
aF0.34128448367118835
aF0.33438176578945583
aF0.4081203142801921
aF0.4014688559940883
aF0.36323030789693195
aF0.37903451919555664
aF0.37017730304173063
aF0.31097912788391113
aF0.32404211163520813
aF0.3398775713784354
aF0.3508695534297398
aF0.4019339879353841
aF0.35678625106811523
aF0.378856897354126
aF0.35244355882917133
aF0.37851813435554504
aF0.396136611700058
aF0.385098968233381
aF0.37613632943895126
aF0.3939565590449742
aF0.3441043496131897
aF0.3723529875278473
aF0.37487173080444336
aF0.3351508549281529
aF0.3939811502184187
aF0.4092443883419037
aF0.3695348799228668
aF0.37884930201939176
aF0.3386772700718471
aF0.3837168614069621
aF0.37619611620903015
aF0.389700140271868
aF0.36401401247297016
aF0.4082270993126763
aF0.35665600640433176
aF0.3566135678972517
aF0.37903973034449984
aF0.34234302384512766
aF0.3600515638078962
aF0.3419167399406433
aF0.3973574297768729
aF0.3657815796988351
aF0.45399556841169086
aF0.3164342812129429
aF0.3755467278616769
aF0.3892354965209961
aF0.4329058329264323
aF0.3718031474522182
aF0.37036025524139404
aF0.31025663018226624
aF0.33325399671282085
aF0.32064563035964966
aF0.3706375062465668
aF0.380210452609592
aF0.38765913248062134
aF0.3954748809337616
aF0.33763300047980416
aF0.35565641948154997
aF0.3959527611732483
aF0.3653770089149475
aF0.36028077867296004
aF0.42718973755836487
aF0.3509042603628976
aF0.3221033811569214
aF0.32854413986206055
aF0.37353529248918804
aF0.35436467329661053
aF0.3762611150741577
aF0.3962923118046352
aF0.3986811637878418
aF0.3903090272630964
aF0.3423985375298394
aF0.332848276410784
aF0.4372737407684326
aF0.4321795872279576
aF0.34331098198890686
aF0.30885547399520874
aF0.3890424966812134
aF0.4211958646774292
aF0.41294312477111816
aF0.41216700417654856
aF0.39179325103759766
aF0.39457944461277555
aF0.4185640130724226
aF0.40426526750837055
aF0.35998785495758057
aF0.3573975903647287
aF0.3863246440887451
aF0.4191875159740448
aF0.3567278981208801
aF0.33775499888828825
aF0.4198205811636789
aF0.3467617332935333
aF0.3510361313819885
aF0.34432387351989746
aF0.3936887128012521
aF0.34179624915122986
aF0.4217125177383423
aF0.3839925130208333
aF0.36505037546157837
aF0.5851828753948212
aF0.36687186786106657
aF0.43179586955479216
aF0.43325955527169363
aF0.36574414372444153
aF0.3843225751604353
aF0.41189461946487427
aF0.41287514567375183
aF0.3988668620586395
aF0.3849104472569057
aF0.3871164321899414
aF0.4024922549724579
aF0.3957498414175851
aF0.38139401163373676
aF0.3627343773841858
aF0.35112977027893066
aF0.37133410573005676
aF0.3982898507799421
aF0.36234161257743835
aF0.4669798215230306
aF0.4652448722294399
aF0.4957294464111328
aF0.463707168896993
aF0.37746613366263254
aF0.40323056493486675
aF0.43906698908124653
aF0.42582398653030396
aF0.39267948269844055
aF0.393314003944397
aF0.4779374258858817
aF0.3633463382720947
aF0.4058167636394501
aF0.430678129196167
aF0.36307963728904724
aF0.41140798160008024
aF0.3660283353593614
aF0.4114494323730469
aF0.40222586904253277
aF0.3305999967787001
aF0.340085506439209
aF0.3834774153573172
aF0.36338114738464355
aF0.3492123782634735
aF0.39482927322387695
aF0.3999209933810764
aF0.3642653524875641
aF0.3619095938546317
aF0.3595072627067566
aF0.36617040634155273
aF0.3744448593684605
aF0.4384068420955113
aF0.3453187346458435
aF0.3661496341228485
aF0.4303971699305943
aF0.3644736409187317
aF0.4346457208905901
aF0.3699754609002007
aF0.45491412707737516
aF0.4431030069078718
aF0.4184310095650809
aF0.37551286816596985
aF0.3553036153316498
aF0.3845581114292145
aF0.3750416040420532
aF0.38663238286972046
aF0.41637998819351196
aF0.35015113013131277
aF0.3838144838809967
aF0.37902912497520447
aF0.39172758374895367
aF0.3352390130360921
aF0.3554169833660126
aF0.37213537096977234
aF0.3402952807290213
aF0.33135512471199036
aF0.34043870653424946
aF0.3680446677737766
aF0.452216420854841
aF0.3707944325038365
aF0.5980019966761271
aF0.9075453281402588
aF0.6381894946098328
aF0.6376489798227946
aF0.6977620124816895
aF0.5766215324401855
aF0.6498533089955648
aF0.49441776275634763
aF0.4675332307815552
aF0.6952606836954752
aF0.6284942626953125
aF0.6611189842224121
aF0.5729387998580933
aF0.575878381729126
aF0.49819475412368774
aF0.6629330317179362
aF0.5584709644317627
aF0.6162587404251099
aF0.5699782371520996
aF0.5139527320861816
aF0.6427202224731445
aF0.7807307839393616
aF0.8580026626586914
aF0.7507956822713217
aF0.7496429681777954
aF0.6902616024017334
aF0.6293323834737142
aF0.48482322692871094
aF0.505964994430542
aF0.7131834030151367
aF0.5055792331695557
aF0.5702074766159058
aF0.6271353562672933
aF0.9067396322886149
aF0.523073673248291
aF0.5071132977803549
aF0.576835036277771
aF0.545818010965983
aF0.5746609687805175
aF0.5699652830759684
aF0.7742113272349039
aF0.6623936494191488
aF0.6256970167160034
aF0.5227222442626953
aF0.6349717974662781
aF0.5180798053741456
aF0.5788156986236572
aF0.560039758682251
aF0.6504646937052408
aF0.670393705368042
aF0.7055052518844604
aF0.5241562128067017
aF0.5850344896316528
aF0.7135693232218424
aF0.5094552636146545
aF0.5461775064468384
aF0.4442206223805745
aF0.6995750268300375
aF0.614372968673706
aF0.6928906440734863
aF0.5178346633911133
aF0.47014451026916504
aF0.6232053438822428
aF0.6443384885787964
aF0.4950779279073079
aF0.45218467712402344
aF0.4868876139322917
aF0.744050661722819
aF0.586200761795044
aF0.6412003040313721
aF0.6914640267690023
aF0.5599682927131653
aF0.5674992799758911
aF0.601689338684082
aF0.6182843844095866
aF0.5833412806193033
aF0.6578687429428101
aF0.5660937428474426
aF0.6542646884918213
aF0.6242216428120931
aF0.5860962271690369
aF0.5405383904774984
aF0.5783007144927979
aF0.7167139848073324
aF0.4792410135269165
aF0.6170639991760254
aF0.9107849597930908
aF0.48350799083709717
aF1.248033046722412
aF0.6416446367899576
aF0.6390256881713867
aF0.5296605229377747
aF0.6723562876383463
aF0.6409292817115784
aF0.6161065101623535
aF0.5185326933860779
aF0.4501057267189026
aF0.45749516487121583
aF0.48083800077438354
aF0.6439952850341797
aF0.6675557295481364
aF0.6425692439079285
aF0.5609826246897379
aF0.5563135147094727
aF0.8595679601033529
aF0.5817646026611328
aF0.5222803751627604
aF0.5911230444908142
aF0.5806235074996948
aF0.8286405801773071
aF0.5770142873128256
aF0.45208728313446045
aF0.7445096174875895
aF0.668990691502889
aF0.6154724955558777
aF0.6041780312856039
aF0.5649922490119934
aF0.5565137068430582
aF0.6304969787597656
aF0.872290293375651
aF0.5405557155609131
aF0.6370963255564371
aF0.5288184881210327
aF0.764573335647583
aF0.4779155731201172
aF1.2577790419260662
aF1.371498982111613
aF0.9456779956817627
aF0.611477255821228
aF0.7943224906921387
aF1.3268507719039917
aF0.7880403200785319
aF0.8261656761169434
aF0.5075492262840271
aF0.5444089770317078
aF0.6928497155507406
aF0.6189970175425211
aF0.8656193415323893
aF0.5850419998168945
aF0.5501929918924967
aF0.5446592569351196
aF0.6746127605438232
aF0.5034420490264893
aF0.4993342161178589
aF0.5746250152587891
aF0.5643330415089926
aF0.6687380075454712
aF0.6781857013702393
aF0.5196269750595093
aF0.5293602347373962
aF0.6590022444725037
aF0.7014219760894775
aF0.590974748134613
aF0.5268570184707642
aF0.6579797267913818
aF0.7302859624226888
aF0.5679966608683268
aF0.6123256683349609
aF0.78849196434021
aF0.6919629573822021
aF0.5253605246543884
aF0.6055676937103271
aF0.6704676151275635
aF0.8837825059890747
aF0.5310577750205994
aF0.5546584725379944
aF0.5860673586527506
aF0.7921866575876871
aF0.6752113501230875
aF0.6032012701034546
aF0.6766774654388428
aF0.5081745386123657
aF0.7033966382344564
aF0.5036180019378662
aF0.6698529720306396
aF0.6245119571685791
aF0.5686729749043783
aF0.5936246713002523
aF0.5967845320701599
aF0.7361634969711304
aF0.531629741191864
aF0.6550000309944153
aF0.5920969645182291
aF0.7166807055473328
aF0.5893784761428833
aF0.6201852560043335
aF0.5722736517588297
aF0.7144850095113119
aF0.6057149767875671
aF0.7479082743326823
aF0.5534089406331381
aF0.6452884674072266
aF0.5430589914321899
aF0.524046262105306
aF0.5215553442637125
aF0.6279632449150085
aF0.5379702091217041
aF0.5563186804453532
aF0.5768797397613525
aF0.4669569730758667
aF0.5554320017496744
a.