(lp0
cnumpy.core.multiarray
scalar
p1
(cnumpy
dtype
p2
(S'f8'
p3
I0
I1
tp4
Rp5
(I3
S'<'
p6
NNNI-1
I-1
I0
tp7
bS'\x82\x89\xfeNV\xcb\xeb?'
p8
tp9
Rp10
ag1
(g5
S'\xc2\x11DZ/`\xeb?'
p11
tp12
Rp13
ag1
(g5
S'*\\\x8f\xc2\xf5(\xec?'
p14
tp15
Rp16
ag1
(g5
S'\xc63\x9e\xf1\x8cg\xec?'
p17
tp18
Rp19
ag1
(g5
S'\xd9\xf8fh\xed>\xec?'
p20
tp21
Rp22
a.