(lp0
F5.596723311986679e-06
aF5.424022674560547e-06
aF5.370531326685196e-06
aF5.538646991436298e-06
aF5.384286244710286e-06
aF5.627289796486879e-06
aF5.506552182711088e-06
aF6.840779231144832e-06
aF5.474457373985877e-06
aF6.020069122314453e-06
aF5.454589159060747e-06
aF5.7128759530874395e-06
aF5.570741800161509e-06
aF5.472929049760867e-06
aF5.608949905786759e-06
aF5.615063202686799e-06
aF5.7954054612379805e-06
aF5.257435334034455e-06
aF5.72357422266251e-06
aF5.793877137012971e-06
aF5.616591526911809e-06
aF5.781650543212891e-06
aF6.082730415539864e-06
aF5.917671399238782e-06
aF5.563100179036458e-06
aF5.775537246312851e-06
aF5.6868944412622695e-06
aF5.524892073411208e-06
aF5.391927865835337e-06
aF5.251322037134415e-06
aF5.468344077085837e-06
aF5.474457373985877e-06
aF5.775537246312851e-06
aF5.8458401606633115e-06
aF5.442362565260667e-06
aF5.537118667211288e-06
aF5.1275277749086035e-06
aF5.8718216724884815e-06
aF5.653271308312049e-06
aF5.615063202686799e-06
aF5.442362565260667e-06
aF5.538646991436298e-06
aF6.038409013014573e-06
aF5.8397268637632715e-06
aF6.435773311517178e-06
aF5.0129034580328525e-06
aF5.71134762886243e-06
aF5.450004186385717e-06
aF5.7251025468875204e-06
aF5.807632055038061e-06
aF5.249793712909405e-06
aF6.094957009339944e-06
aF5.2421520917843546e-06
aF5.390399541610326e-06
aF5.71746092576247e-06
aF8.564728956956129e-06
aF5.653271308312049e-06
aF5.916143075013772e-06
aF5.66702622633714e-06
aF4.999148540007763e-06
aF5.430135971460587e-06
aF5.2238122010842344e-06
aF5.275775224734575e-06
aF5.518778776511168e-06
aF1.0313131870367588e-05
aF5.544760288336338e-06
aF5.659384605212089e-06
aF5.8779349693885215e-06
aF5.7312158437875605e-06
aF5.466815752860827e-06
aF5.659384605212089e-06
aF5.75108405871269e-06
aF5.498910561586038e-06
aF5.67925282013722e-06
aF5.8840482662885615e-06
aF5.370531326685196e-06
aF5.436249268360627e-06
aF5.378172947810246e-06
aF5.295643439659705e-06
aF5.615063202686799e-06
aF5.281888521634615e-06
aF5.460702455960787e-06
aF5.0067901611328125e-06
aF5.370531326685196e-06
aF5.518778776511168e-06
aF5.781650543212891e-06
aF5.526420397636218e-06
aF6.249317756065955e-06
aF5.6486863356370195e-06
aF5.468344077085837e-06
aF5.333851545284956e-06
aF5.942124586838942e-06
aF5.315511654584836e-06
aF5.514193803836138e-06
aF5.67925282013722e-06
aF5.865708375588441e-06
aF5.564628503261469e-06
aF5.7128759530874395e-06
aF5.891689887413611e-06
aF5.153509286733774e-06
aF5.448475862160707e-06
aF6.325733967316456e-06
aF5.576855097061549e-06
aF5.69300773816231e-06
aF5.462230780185797e-06
aF5.749555734487681e-06
aF4.80046639075646e-06
aF6.807156098194611e-06
aF5.615063202686799e-06
aF5.72968751956255e-06
aF5.6868944412622695e-06
aF5.615063202686799e-06
aF5.608949905786759e-06
aF5.775537246312851e-06
aF5.68536611703726e-06
aF5.352191435985076e-06
aF5.781650543212891e-06
aF5.602836608886719e-06
aF5.1275277749086035e-06
aF5.615063202686799e-06
aF5.615063202686799e-06
aF5.294115115434695e-06
aF5.486683967785958e-06
aF5.608949905786759e-06
aF4.852429414406801e-06
aF5.608949905786759e-06
aF5.755669031387721e-06
aF5.66702622633714e-06
aF5.879463293613531e-06
aF5.109187884208483e-06
aF5.365946354010166e-06
aF5.448475862160707e-06
aF5.122942802233573e-06
aF5.66702622633714e-06
aF5.410267756535457e-06
aF5.628818120711889e-06
aF5.428607647235577e-06
aF5.468344077085837e-06
aF5.7633106525127705e-06
aF5.332323221059946e-06
aF5.193245716584034e-06
aF5.424022674560547e-06
aF5.339964842184996e-06
aF5.7312158437875605e-06
aF6.006314204289363e-06
aF5.602836608886719e-06
aF5.313983330359826e-06
aF5.313983330359826e-06
aF5.634931417611929e-06
aF5.858066754463392e-06
aF5.1275277749086035e-06
aF5.578383421286559e-06
aF5.608949905786759e-06
aF5.217698904184194e-06
aF5.070979778583233e-06
aF4.890637520032052e-06
aF5.1657358805338544e-06
aF5.544760288336338e-06
aF5.173377501658904e-06
aF5.538646991436298e-06
aF5.424022674560547e-06
aF5.69759271083734e-06
aF5.8397268637632715e-06
aF5.358304732885116e-06
aF5.0954329661833935e-06
aF5.589081690861629e-06
aF5.179490798558944e-06
aF5.466815752860827e-06
aF5.641044714511969e-06
aF5.506552182711088e-06
aF5.8015187581380206e-06
aF5.333851545284956e-06
aF5.462230780185797e-06
aF5.211585607284154e-06
aF5.398041162735377e-06
aF6.230977865365835e-06
aF5.821386973063151e-06
aF5.67313952323718e-06
aF5.68536611703726e-06
aF5.68536611703726e-06
aF5.480570670885917e-06
aF5.448475862160707e-06
aF5.404154459635417e-06
aF5.615063202686799e-06
aF5.8015187581380206e-06
aF5.7251025468875204e-06
aF5.193245716584034e-06
aF4.942600543682392e-06
aF5.596723311986679e-06
aF5.058753184783153e-06
aF5.179490798558944e-06
aF6.359357100266677e-06
aF5.179490798558944e-06
aF5.66702622633714e-06
aF5.462230780185797e-06
aF5.191717392359024e-06
aF5.6868944412622695e-06
aF5.647158011412009e-06
aF5.859595078688401e-06
aF6.140806736090244e-06
aF5.73427249223758e-06
aF6.257978260007679e-06
aF6.504547901642628e-06
aF6.04197510287293e-06
aF5.897293742905315e-06
aF5.292077349801349e-06
aF5.768914508004474e-06
aF6.376168666741787e-06
aF5.717970367170807e-06
aF5.77706557053786e-06
aF5.889142680371929e-06
aF6.408772916875334e-06
aF5.597742194803352e-06
aF5.830047477004874e-06
aF5.931935758672209e-06
aF5.675177288870526e-06
aF5.605893257336739e-06
aF5.897293742905315e-06
aF6.6410781990768564e-06
aF5.991030962039263e-06
aF5.461211897369124e-06
aF6.836703699878139e-06
aF5.803556523771367e-06
aF5.846349602071648e-06
aF5.683328351403913e-06
aF6.300771338307959e-06
aF5.974728836972489e-06
aF6.06031499357305e-06
aF6.007333087106036e-06
aF5.461211897369124e-06
aF6.04197510287293e-06
aF6.486208010942508e-06
aF5.66702622633714e-06
aF6.1194101969401044e-06
aF5.940086821205596e-06
aF5.736310257870927e-06
aF5.675177288870526e-06
aF5.913595867972089e-06
aF5.298190646701389e-06
aF5.1025651459001065e-06
aF5.77706557053786e-06
aF5.436758709768964e-06
aF5.400078928368724e-06
aF5.367474678235177e-06
aF6.145901150173611e-06
aF6.111259134406718e-06
aF5.854500664605035e-06
aF5.546798053969685e-06
aF5.632384210570246e-06
aF5.493816147502671e-06
aF5.889142680371929e-06
aF5.897293742905315e-06
aF5.803556523771367e-06
aF5.2289066151676016e-06
aF5.838198539538261e-06
aF5.624233148036859e-06
aF6.094957009339944e-06
aF6.853005824944912e-06
aF5.9665777744391025e-06
aF5.530495928902911e-06
aF6.445452698275574e-06
aF6.052163931039663e-06
aF5.463249663002471e-06
aF6.333375588441507e-06
aF5.212604490100828e-06
aF5.453060834835737e-06
aF6.306884635207999e-06
aF6.1703543377737715e-06
aF5.6996304764706865e-06
aF6.418961745042067e-06
aF6.04197510287293e-06
aF5.931935758672209e-06
aF5.73427249223758e-06
aF6.3924707918085605e-06
aF6.068466056106437e-06
aF6.418961745042067e-06
aF5.803556523771367e-06
aF5.9217469305054756e-06
aF6.178505400307158e-06
aF6.0175219152727696e-06
aF5.956388946272369e-06
aF6.445452698275574e-06
aF6.101070306239984e-06
aF5.982879899505876e-06
aF6.143863384540265e-06
aF5.624233148036859e-06
aF5.7526123829377e-06
aF5.632384210570246e-06
aF6.162203275240385e-06
aF5.463249663002471e-06
aF5.504004975669404e-06
aF5.974728836972489e-06
aF5.563100179036458e-06
aF6.239638369307559e-06
aF5.3063417092347754e-06
aF5.538646991436298e-06
aF5.565137944669805e-06
aF5.907482571072049e-06
aF6.076617118639823e-06
aF5.589591132269965e-06
aF6.2151851817073984e-06
aF5.838198539538261e-06
aF5.169811411800548e-06
aF5.854500664605035e-06
aF5.359323615701789e-06
aF5.5732890072031915e-06
aF5.803556523771367e-06
aF6.555492042476295e-06
aF5.495853913136018e-06
aF6.777608496511084e-06
aF5.77095227363782e-06
aF5.581440069736578e-06
aF5.196302365034055e-06
aF6.0175219152727696e-06
aF5.9217469305054756e-06
aF5.247246505867722e-06
aF5.632384210570246e-06
aF5.410267756535457e-06
aF5.418418819068844e-06
aF5.520307100736178e-06
aF6.101070306239984e-06
aF5.640535273103633e-06
aF6.076617118639823e-06
aF5.948237883738982e-06
aF5.838198539538261e-06
aF6.520850026709401e-06
aF5.972691071339143e-06
aF6.111259134406718e-06
aF6.068466056106437e-06
aF5.931935758672209e-06
aF5.913595867972089e-06
aF6.001219790205996e-06
aF6.007333087106036e-06
aF6.255940494374332e-06
aF5.632384210570246e-06
aF5.7954054612379805e-06
aF6.496396839109241e-06
aF6.459717057709001e-06
aF5.779103336171207e-06
aF6.127561259473491e-06
aF6.143863384540265e-06
aF5.8708027896718085e-06
aF6.512698964176015e-06
aF5.905444805438702e-06
aF5.717970367170807e-06
aF5.819858648838141e-06
aF6.1703543377737715e-06
aF5.461211897369124e-06
aF6.333375588441507e-06
aF6.044012868506276e-06
aF5.836160773904914e-06
aF6.213147416074052e-06
aF5.972691071339143e-06
aF5.872840555305155e-06
aF5.436758709768964e-06
aF6.162203275240385e-06
aF6.581982995709803e-06
aF5.828009711371527e-06
aF6.2212984786074385e-06
aF6.033824040339543e-06
aF5.846349602071648e-06
aF5.811707586304754e-06
aF6.753155308910924e-06
aF6.07865488427317e-06
aF5.785216633071247e-06
aF5.923784696138822e-06
aF6.111259134406718e-06
aF5.632384210570246e-06
aF5.5732890072031915e-06
aF5.838198539538261e-06
aF5.597742194803352e-06
aF5.538646991436298e-06
aF5.6914794139373e-06
aF6.410810682508681e-06
aF6.777608496511084e-06
aF6.0175219152727696e-06
aF5.787254398704594e-06
aF5.589591132269965e-06
aF5.742423554770967e-06
aF6.04197510287293e-06
aF5.982879899505876e-06
aF5.658875163803753e-06
aF7.205539279513889e-06
aF5.605893257336739e-06
aF5.616082085503473e-06
aF6.427112807575454e-06
aF6.247789431840945e-06
aF6.196845291007278e-06
aF6.3924707918085605e-06
aF6.0175219152727696e-06
aF5.351172553168402e-06
aF5.905444805438702e-06
aF5.862651727138422e-06
aF5.556986882136418e-06
aF5.819858648838141e-06
aF5.940086821205596e-06
aF5.948237883738982e-06
aF6.044012868506276e-06
aF6.068466056106437e-06
aF5.940086821205596e-06
aF6.180543165940505e-06
aF6.3608854244916865e-06
aF6.318092346191406e-06
aF6.6145872458433496e-06
aF6.999724950545873e-06
aF7.112820943196614e-06
aF5.975747719789163e-06
aF6.859119121844952e-06
aF6.7429664807441905e-06
aF6.746023129194211e-06
aF6.217222947340745e-06
aF6.308922400841346e-06
aF6.7429664807441905e-06
aF6.834665934244792e-06
aF7.216746990497296e-06
aF6.562624222193009e-06
aF6.68183351174379e-06
aF7.152557373046875e-06
aF6.382281963641827e-06
aF6.296695807041266e-06
aF6.746023129194211e-06
aF6.064390524839743e-06
aF6.027710743439503e-06
aF6.6665502694936895e-06
aF6.000200907389323e-06
aF6.4373016357421875e-06
aF6.5137178469926885e-06
aF6.153033329890324e-06
aF6.959988520695613e-06
aF6.68183351174379e-06
aF6.473981417142428e-06
aF6.052163931039663e-06
aF6.5137178469926885e-06
aF5.792348812787961e-06
aF7.332899631598057e-06
aF6.486208010942508e-06
aF6.333375588441507e-06
aF6.6023606520432695e-06
aF6.794929504394531e-06
aF8.115401634803185e-06
aF6.180543165940505e-06
aF6.076617118639823e-06
aF6.000200907389323e-06
aF6.308922400841346e-06
aF6.550397628392929e-06
aF6.883572309445112e-06
aF6.62681383964343e-06
aF6.3608854244916865e-06
aF6.5137178469926885e-06
aF6.425075041942107e-06
aF7.256483420347556e-06
aF6.140806736090244e-06
aF6.999724950545873e-06
aF6.6543236756936094e-06
aF6.819382691994691e-06
aF6.553454276842948e-06
aF6.229449541140825e-06
aF6.012427501189403e-06
aF6.629870488093449e-06
aF6.113296900040064e-06
aF6.3608854244916865e-06
aF6.553454276842948e-06
aF7.433769030448718e-06
aF5.792348812787961e-06
aF6.192769759740585e-06
aF6.284469213241186e-06
aF6.217222947340745e-06
aF6.587077409793169e-06
aF6.128580142290164e-06
aF6.510661198542668e-06
aF5.8840482662885615e-06
aF6.256959377191006e-06
aF5.948237883738982e-06
aF6.345602182241587e-06
aF6.052163931039663e-06
aF7.974795806102264e-06
aF5.948237883738982e-06
aF7.164783966846955e-06
aF6.204996353540665e-06
aF6.68183351174379e-06
aF5.923784696138822e-06
aF6.3608854244916865e-06
aF6.3608854244916865e-06
aF6.71851329314403e-06
aF6.385338612091847e-06
aF6.498434604742588e-06
aF6.357828776041667e-06
aF6.843835879594852e-06
aF6.409791799692007e-06
aF6.895798903245192e-06
aF7.433769030448718e-06
aF6.5259444407927685e-06
aF6.871345715645032e-06
aF6.217222947340745e-06
aF5.767895625187801e-06
aF6.168316572140425e-06
aF6.5259444407927685e-06
aF7.063914567996294e-06
aF6.434244987292167e-06
aF6.192769759740585e-06
aF5.7954054612379805e-06
aF6.293639158591246e-06
aF6.357828776041667e-06
aF6.6787768632937704e-06
aF6.6145872458433496e-06
aF7.858643165001502e-06
aF6.434244987292167e-06
aF6.770476316794371e-06
aF6.6145872458433496e-06
aF6.024654094989483e-06
aF7.886153001051683e-06
aF6.4373016357421875e-06
aF6.140806736090244e-06
aF6.385338612091847e-06
aF6.088843712439904e-06
aF6.357828776041667e-06
aF6.0491072825896435e-06
aF6.0368806887895635e-06
aF6.819382691994691e-06
aF6.397565205891927e-06
aF6.6023606520432695e-06
aF6.269185970991086e-06
aF6.305865752391326e-06
aF6.770476316794371e-06
aF6.1774865174904844e-06
aF6.281412564791166e-06
aF7.256483420347556e-06
aF6.397565205891927e-06
aF5.948237883738982e-06
aF6.425075041942107e-06
aF6.0368806887895635e-06
aF6.397565205891927e-06
aF6.449528229542268e-06
aF5.7954054612379805e-06
aF5.767895625187801e-06
aF5.920728047688802e-06
aF6.229449541140825e-06
aF6.562624222193009e-06
aF6.486208010942508e-06
aF6.6023606520432695e-06
aF6.703230050893931e-06
aF6.617643894293369e-06
aF6.064390524839743e-06
aF6.807156098194611e-06
aF6.409791799692007e-06
aF5.911558102338742e-06
aF6.012427501189403e-06
aF6.6787768632937704e-06
aF6.819382691994691e-06
aF6.253902728740985e-06
aF6.140806736090244e-06
aF7.2320302327473956e-06
aF5.936011289938902e-06
aF6.217222947340745e-06
aF7.497958647899139e-06
aF6.6543236756936094e-06
aF6.204996353540665e-06
aF6.473981417142428e-06
aF6.256959377191006e-06
aF7.244256826547476e-06
aF6.180543165940505e-06
aF6.6910034570938505e-06
aF6.605417300493289e-06
aF6.156089978340345e-06
aF6.975271762945713e-06
aF6.2202795957907656e-06
aF6.293639158591246e-06
aF6.397565205891927e-06
aF6.6787768632937704e-06
aF6.3608854244916865e-06
aF7.164783966846955e-06
aF6.461754823342348e-06
aF6.987498356745793e-06
aF6.409791799692007e-06
aF6.617643894293369e-06
aF6.6543236756936094e-06
aF7.65384771885016e-06
aF6.859119121844952e-06
aF6.510661198542668e-06
aF6.461754823342348e-06
aF6.269185970991086e-06
aF6.229449541140825e-06
aF6.6910034570938505e-06
aF6.256959377191006e-06
aF6.241676134940905e-06
aF6.819382691994691e-06
aF5.975747719789163e-06
aF6.999724950545873e-06
aF6.305865752391326e-06
aF6.498434604742588e-06
aF6.434244987292167e-06
aF6.3608854244916865e-06
aF6.412848448142027e-06
aF6.642097081893529e-06
aF6.6665502694936895e-06
aF6.434244987292167e-06
aF6.293639158591246e-06
aF6.140806736090244e-06
aF7.513241890149239e-06
aF6.333375588441507e-06
aF8.50970928485577e-06
aF9.053792708959334e-06
aF9.744595258663861e-06
aF8.766467754657451e-06
aF8.155138064653445e-06
aF8.204044439853766e-06
aF8.540275769355969e-06
aF9.176058646960137e-06
aF8.870393801958133e-06
aF9.029339521359174e-06
aF8.332423674754607e-06
aF1.0233659010667067e-05
aF8.460802909655449e-06
aF8.405783237555088e-06
aF8.589182144556291e-06
aF9.053792708959334e-06
aF8.766467754657451e-06
aF1.053932385566907e-05
aF8.638088519756611e-06
aF8.564728956956129e-06
aF9.383910741561498e-06
aF8.436349722055289e-06
aF7.898379594851764e-06
aF7.898379594851764e-06
aF8.179591252253606e-06
aF8.845940614357973e-06
aF8.124571580153246e-06
aF8.564728956956129e-06
aF8.204044439853766e-06
aF8.106231689453125e-06
aF8.717561379457131e-06
aF8.845940614357973e-06
aF8.766467754657451e-06
aF8.998773036858975e-06
aF1.0741062653370393e-05
aF8.259064111954127e-06
aF9.029339521359174e-06
aF8.821487426757812e-06
aF8.356876862354768e-06
aF8.460802909655449e-06
aF8.974319849258814e-06
aF9.200511834560297e-06
aF9.616216023763021e-06
aF8.717561379457131e-06
aF8.106231689453125e-06
aF8.870393801958133e-06
aF8.075665204952924e-06
aF8.845940614357973e-06
aF8.66865500425681e-06
aF7.977852454552283e-06
aF8.430236425155248e-06
aF1.7025531866611578e-05
aF8.870393801958133e-06
aF8.638088519756611e-06
aF9.102699084159656e-06
aF7.977852454552283e-06
aF8.356876862354768e-06
aF9.255531506660656e-06
aF8.50970928485577e-06
aF8.436349722055289e-06
aF7.867813110351562e-06
aF9.383910741561498e-06
aF9.58564953926282e-06
aF8.589182144556291e-06
aF8.540275769355969e-06
aF8.772581051557492e-06
aF8.540275769355969e-06
aF8.515822581755809e-06
aF8.589182144556291e-06
aF8.051212017352764e-06
aF8.69310819185697e-06
aF1.056377704326923e-05
aF8.411896534455129e-06
aF8.900960286458334e-06
aF8.998773036858975e-06
aF8.460802909655449e-06
aF9.004886333759014e-06
aF8.900960286458334e-06
aF8.821487426757812e-06
aF9.591762836162861e-06
aF8.002305642152443e-06
aF8.283517299554287e-06
aF8.797034239157652e-06
aF8.797034239157652e-06
aF8.307970487154447e-06
aF8.717561379457131e-06
aF9.51228997646234e-06
aF7.745547172350762e-06
aF8.411896534455129e-06
aF9.078245896559496e-06
aF8.228497627453926e-06
aF8.589182144556291e-06
aF8.332423674754607e-06
aF8.026758829752604e-06
aF8.766467754657451e-06
aF9.616216023763021e-06
aF8.797034239157652e-06
aF8.742014567057291e-06
aF9.133265568659856e-06
aF7.409315842848558e-06
aF9.127152271759816e-06
aF8.283517299554287e-06
aF9.842408009064504e-06
aF8.894846989558293e-06
aF8.797034239157652e-06
aF8.48525609725561e-06
aF8.234610924353967e-06
aF8.411896534455129e-06
aF8.998773036858975e-06
aF8.515822581755809e-06
aF8.797034239157652e-06
aF8.100118392553084e-06
aF8.381330049954928e-06
aF8.411896534455129e-06
aF8.283517299554287e-06
aF9.151605459359976e-06
aF8.179591252253606e-06
aF8.797034239157652e-06
aF9.023226224459135e-06
aF9.310551178761018e-06
aF8.387443346854969e-06
aF1.13829588278746e-05
aF8.564728956956129e-06
aF8.540275769355969e-06
aF8.766467754657451e-06
aF9.744595258663861e-06
aF9.182171943860176e-06
aF8.381330049954928e-06
aF8.845940614357973e-06
aF8.790920942257611e-06
aF8.026758829752604e-06
aF8.026758829752604e-06
aF8.540275769355969e-06
aF8.845940614357973e-06
aF8.075665204952924e-06
aF8.130684877053285e-06
aF8.821487426757812e-06
aF9.176058646960137e-06
aF8.332423674754607e-06
aF1.154190454727564e-05
aF8.381330049954928e-06
aF7.947285970052084e-06
aF9.744595258663861e-06
aF8.026758829752604e-06
aF8.540275769355969e-06
aF9.029339521359174e-06
aF8.026758829752604e-06
aF8.564728956956129e-06
aF8.106231689453125e-06
aF8.436349722055289e-06
aF8.051212017352764e-06
aF8.283517299554287e-06
aF8.051212017352764e-06
aF9.591762836162861e-06
aF8.870393801958133e-06
aF8.130684877053285e-06
aF8.405783237555088e-06
aF8.130684877053285e-06
aF8.766467754657451e-06
aF9.029339521359174e-06
aF7.947285970052084e-06
aF8.228497627453926e-06
aF8.870393801958133e-06
aF8.894846989558293e-06
aF1.0612683418469551e-05
aF9.310551178761018e-06
aF8.919300177158453e-06
aF8.845940614357973e-06
aF9.231078319060496e-06
aF8.332423674754607e-06
aF9.995240431565504e-06
aF9.279984694260817e-06
aF9.102699084159656e-06
aF8.436349722055289e-06
aF8.179591252253606e-06
aF8.821487426757812e-06
aF8.797034239157652e-06
aF8.228497627453926e-06
aF8.026758829752604e-06
aF8.436349722055289e-06
aF8.638088519756611e-06
aF9.102699084159656e-06
aF8.53416247245593e-06
aF7.794453547551082e-06
aF8.234610924353967e-06
aF8.613635332156451e-06
aF9.335004366361178e-06
aF8.387443346854969e-06
aF8.204044439853766e-06
aF8.436349722055289e-06
aF7.971739157652244e-06
aF1.053932385566907e-05
aF9.48783678886218e-06
aF8.998773036858975e-06
aF9.102699084159656e-06
aF8.234610924353967e-06
aF8.204044439853766e-06
aF8.210157736753807e-06
aF8.460802909655449e-06
aF8.852053911258014e-06
a.