(lp0
F3.874301910400391e-06
aF3.7491321563720702e-06
aF3.7729740142822264e-06
aF3.7789344787597655e-06
aF3.7491321563720702e-06
aF3.7789344787597655e-06
aF3.796815872192383e-06
aF4.57763671875e-06
aF3.796815872192383e-06
aF3.8027763366699217e-06
aF3.7789344787597655e-06
aF3.7729740142822264e-06
aF3.7729740142822264e-06
aF3.796815872192383e-06
aF4.076957702636719e-06
aF3.7729740142822264e-06
aF3.826618194580078e-06
aF3.975629806518555e-06
aF3.850460052490234e-06
aF3.7789344787597655e-06
aF4.45246696472168e-06
aF4.4047832489013675e-06
aF3.7729740142822264e-06
aF3.796815872192383e-06
aF3.796815872192383e-06
aF3.8027763366699217e-06
aF3.8027763366699217e-06
aF3.7729740142822264e-06
aF3.8027763366699217e-06
aF3.7729740142822264e-06
aF3.7729740142822264e-06
aF3.7491321563720702e-06
aF3.7729740142822264e-06
aF3.796815872192383e-06
aF3.7729740142822264e-06
aF3.796815872192383e-06
aF3.7729740142822264e-06
aF3.7729740142822264e-06
aF3.7789344787597655e-06
aF3.7729740142822264e-06
aF3.7789344787597655e-06
aF3.7789344787597655e-06
aF3.8027763366699217e-06
aF3.7729740142822264e-06
aF4.571676254272461e-06
aF3.725290298461914e-06
aF3.7789344787597655e-06
aF3.7491321563720702e-06
aF3.8027763366699217e-06
aF3.796815872192383e-06
aF3.7491321563720702e-06
aF3.7729740142822264e-06
aF3.7491321563720702e-06
aF4.1961669921875e-06
aF3.820657730102539e-06
aF5.650520324707031e-06
aF3.7550926208496094e-06
aF3.8027763366699217e-06
aF3.7729740142822264e-06
aF3.796815872192383e-06
aF3.8027763366699217e-06
aF4.202127456665039e-06
aF3.7789344787597655e-06
aF3.725290298461914e-06
aF6.622076034545898e-06
aF3.7729740142822264e-06
aF3.7729740142822264e-06
aF3.796815872192383e-06
aF3.7789344787597655e-06
aF3.796815872192383e-06
aF3.850460052490234e-06
aF3.874301910400391e-06
aF3.7729740142822264e-06
aF3.8027763366699217e-06
aF3.7789344787597655e-06
aF3.796815872192383e-06
aF3.826618194580078e-06
aF3.850460052490234e-06
aF3.7729740142822264e-06
aF3.820657730102539e-06
aF3.8027763366699217e-06
aF3.796815872192383e-06
aF3.725290298461914e-06
aF3.7729740142822264e-06
aF3.7729740142822264e-06
aF3.850460052490234e-06
aF3.7789344787597655e-06
aF3.796815872192383e-06
aF3.7729740142822264e-06
aF3.826618194580078e-06
aF3.820657730102539e-06
aF3.7729740142822264e-06
aF3.7729740142822264e-06
aF3.796815872192383e-06
aF3.8027763366699217e-06
aF3.9279460906982425e-06
aF3.850460052490234e-06
aF3.796815872192383e-06
aF3.7729740142822264e-06
aF3.7491321563720702e-06
aF3.7789344787597655e-06
aF4.249811172485351e-06
aF3.7729740142822264e-06
aF3.7729740142822264e-06
aF3.826618194580078e-06
aF3.7729740142822264e-06
aF3.7729740142822264e-06
aF4.523992538452149e-06
aF3.7729740142822264e-06
aF3.7789344787597655e-06
aF3.725290298461914e-06
aF3.7550926208496094e-06
aF3.7729740142822264e-06
aF3.7789344787597655e-06
aF3.7550926208496094e-06
aF3.8027763366699217e-06
aF3.7729740142822264e-06
aF3.7491321563720702e-06
aF3.725290298461914e-06
aF3.7491321563720702e-06
aF3.7491321563720702e-06
aF3.725290298461914e-06
aF3.7729740142822264e-06
aF3.8027763366699217e-06
aF3.7729740142822264e-06
aF3.8027763366699217e-06
aF3.725290298461914e-06
aF3.874301910400391e-06
aF3.8027763366699217e-06
aF3.796815872192383e-06
aF3.725290298461914e-06
aF3.7789344787597655e-06
aF3.796815872192383e-06
aF3.7550926208496094e-06
aF4.100799560546875e-06
aF3.7729740142822264e-06
aF3.796815872192383e-06
aF3.826618194580078e-06
aF3.820657730102539e-06
aF3.8027763366699217e-06
aF4.172325134277344e-06
aF3.7491321563720702e-06
aF3.7550926208496094e-06
aF3.826618194580078e-06
aF3.7789344787597655e-06
aF3.7789344787597655e-06
aF3.7491321563720702e-06
aF3.7491321563720702e-06
aF3.7491321563720702e-06
aF4.172325134277344e-06
aF3.725290298461914e-06
aF3.7729740142822264e-06
aF3.796815872192383e-06
aF3.7729740142822264e-06
aF3.7789344787597655e-06
aF4.148483276367187e-06
aF3.7491321563720702e-06
aF3.8027763366699217e-06
aF3.7491321563720702e-06
aF3.8027763366699217e-06
aF3.7491321563720702e-06
aF3.7491321563720702e-06
aF3.7729740142822264e-06
aF3.8027763366699217e-06
aF3.7491321563720702e-06
aF3.7491321563720702e-06
aF3.7491321563720702e-06
aF3.7729740142822264e-06
aF3.7789344787597655e-06
aF3.7729740142822264e-06
aF3.7491321563720702e-06
aF3.7789344787597655e-06
aF3.8027763366699217e-06
aF4.202127456665039e-06
aF3.8027763366699217e-06
aF4.5478343963623045e-06
aF3.7729740142822264e-06
aF3.826618194580078e-06
aF3.7729740142822264e-06
aF3.8027763366699217e-06
aF4.202127456665039e-06
aF3.826618194580078e-06
aF3.7789344787597655e-06
aF3.796815872192383e-06
aF3.850460052490234e-06
aF3.7729740142822264e-06
aF3.7491321563720702e-06
aF3.7491321563720702e-06
aF3.7789344787597655e-06
aF3.7729740142822264e-06
aF3.8027763366699217e-06
aF4.476308822631836e-06
aF3.7550926208496094e-06
aF4.202127456665039e-06
aF3.7729740142822264e-06
aF3.7789344787597655e-06
aF3.7729740142822264e-06
aF3.8027763366699217e-06
aF3.8027763366699217e-06
aF3.874301910400391e-06
aF2.836879295638845e-06
aF2.809717685361452e-06
aF2.821789512151404e-06
aF2.7976458585714993e-06
aF2.8338613389413567e-06
aF2.809717685361452e-06
aF2.821789512151404e-06
aF2.8248074688488922e-06
aF2.836879295638845e-06
aF3.0511542211605025e-06
aF2.836879295638845e-06
aF2.9244000398660007e-06
aF2.7976458585714993e-06
aF2.81273564205894e-06
aF3.177908402455004e-06
aF2.9606155202358585e-06
aF2.8248074688488922e-06
aF2.81273564205894e-06
aF2.821789512151404e-06
aF2.81273564205894e-06
aF2.7976458585714993e-06
aF2.86102294921875e-06
aF2.809717685361452e-06
aF2.7976458585714993e-06
aF2.7825560750840585e-06
aF2.809717685361452e-06
aF2.809717685361452e-06
aF2.809717685361452e-06
aF2.821789512151404e-06
aF2.8338613389413567e-06
aF2.821789512151404e-06
aF2.8338613389413567e-06
aF2.809717685361452e-06
aF2.7976458585714993e-06
aF2.7976458585714993e-06
aF2.8248074688488922e-06
aF2.7976458585714993e-06
aF2.8248074688488922e-06
aF2.809717685361452e-06
aF2.821789512151404e-06
aF3.03908239437055e-06
aF2.809717685361452e-06
aF2.7976458585714993e-06
aF2.7976458585714993e-06
aF3.0149387407906448e-06
aF2.8248074688488922e-06
aF2.7976458585714993e-06
aF2.821789512151404e-06
aF2.7976458585714993e-06
aF2.7855740317815467e-06
aF2.7976458585714993e-06
aF2.7855740317815467e-06
aF2.81273564205894e-06
aF2.809717685361452e-06
aF2.809717685361452e-06
aF2.7976458585714993e-06
aF2.809717685361452e-06
aF2.8338613389413567e-06
aF2.809717685361452e-06
aF2.7976458585714993e-06
aF2.8338613389413567e-06
aF2.9757053037232992e-06
aF2.7976458585714993e-06
aF2.7976458585714993e-06
aF2.7855740317815467e-06
aF2.7976458585714993e-06
aF2.7855740317815467e-06
aF2.821789512151404e-06
aF2.809717685361452e-06
aF3.3529498909093157e-06
aF2.7976458585714993e-06
aF2.7855740317815467e-06
aF2.809717685361452e-06
aF2.7825560750840585e-06
aF2.794627901874011e-06
aF2.8489511224287974e-06
aF2.8248074688488922e-06
aF2.809717685361452e-06
aF2.809717685361452e-06
aF2.809717685361452e-06
aF2.7976458585714993e-06
aF2.809717685361452e-06
aF2.7976458585714993e-06
aF3.0270105675805973e-06
aF2.809717685361452e-06
aF2.7855740317815467e-06
aF2.7976458585714993e-06
aF2.821789512151404e-06
aF2.8338613389413567e-06
aF2.809717685361452e-06
aF2.794627901874011e-06
aF2.8248074688488922e-06
aF2.809717685361452e-06
aF2.7976458585714993e-06
aF2.794627901874011e-06
aF2.7855740317815467e-06
aF2.773502204991594e-06
aF2.821789512151404e-06
aF2.8248074688488922e-06
aF2.7976458585714993e-06
aF2.7976458585714993e-06
aF2.7976458585714993e-06
aF2.7976458585714993e-06
aF2.809717685361452e-06
aF2.809717685361452e-06
aF2.809717685361452e-06
aF2.7976458585714993e-06
aF3.340878064119363e-06
aF2.7976458585714993e-06
aF2.821789512151404e-06
aF2.7976458585714993e-06
aF2.809717685361452e-06
aF2.809717685361452e-06
aF2.8338613389413567e-06
aF2.809717685361452e-06
aF2.8338613389413567e-06
aF2.809717685361452e-06
aF2.809717685361452e-06
aF2.821789512151404e-06
aF2.7976458585714993e-06
aF2.809717685361452e-06
aF2.8248074688488922e-06
aF2.836879295638845e-06
aF2.8248074688488922e-06
aF2.7976458585714993e-06
aF2.8248074688488922e-06
aF2.809717685361452e-06
aF2.8489511224287974e-06
aF2.821789512151404e-06
aF2.809717685361452e-06
aF2.7976458585714993e-06
aF2.836879295638845e-06
aF2.809717685361452e-06
aF2.809717685361452e-06
aF2.7976458585714993e-06
aF2.809717685361452e-06
aF2.8489511224287974e-06
aF2.8338613389413567e-06
aF2.821789512151404e-06
aF2.90931025637856e-06
aF3.3529498909093157e-06
aF3.023992610883109e-06
aF2.8248074688488922e-06
aF2.7976458585714993e-06
aF2.809717685361452e-06
aF2.8248074688488922e-06
aF2.7976458585714993e-06
aF2.9244000398660007e-06
aF2.809717685361452e-06
aF2.809717685361452e-06
aF2.7855740317815467e-06
aF2.81273564205894e-06
aF2.7855740317815467e-06
aF2.8248074688488922e-06
aF2.821789512151404e-06
aF2.8248074688488922e-06
aF2.8338613389413567e-06
aF2.821789512151404e-06
aF2.81273564205894e-06
aF2.8248074688488922e-06
aF3.0149387407906448e-06
aF2.8248074688488922e-06
aF3.3680396743967565e-06
aF2.809717685361452e-06
aF2.8972384295886078e-06
aF2.8248074688488922e-06
aF3.141692922085146e-06
aF2.7976458585714993e-06
aF2.809717685361452e-06
aF2.821789512151404e-06
aF2.809717685361452e-06
aF2.7976458585714993e-06
aF2.794627901874011e-06
aF3.126603138597706e-06
aF2.86102294921875e-06
aF3.1145313118077532e-06
aF2.809717685361452e-06
aF2.821789512151404e-06
aF2.948543693445906e-06
aF2.809717685361452e-06
aF2.809717685361452e-06
aF2.7976458585714993e-06
aF3.3801115011867087e-06
aF2.81273564205894e-06
aF3.3529498909093157e-06
aF2.836879295638845e-06
aF2.7976458585714993e-06
aF2.9757053037232992e-06
aF2.821789512151404e-06
aF2.809717685361452e-06
aF3.1537647488750988e-06
aF2.836879295638845e-06
aF2.7976458585714993e-06
aF2.821789512151404e-06
aF2.7976458585714993e-06
aF2.809717685361452e-06
aF2.8248074688488922e-06
aF2.809717685361452e-06
aF2.836879295638845e-06
aF2.8338613389413567e-06
aF2.483190116235765e-06
aF2.458944159038996e-06
aF2.473087634070445e-06
aF2.4912721019680215e-06
aF2.5094565698655984e-06
aF2.4912721019680215e-06
aF2.475108130503509e-06
aF2.8064695455260194e-06
aF2.475108130503509e-06
aF2.5074360734325346e-06
aF2.456923662605932e-06
aF2.6104813915188028e-06
aF2.4650056483381888e-06
aF2.456923662605932e-06
aF2.7115062131720076e-06
aF2.501374584133342e-06
aF2.483190116235765e-06
aF2.4912721019680215e-06
aF2.473087634070445e-06
aF2.475108130503509e-06
aF2.475108130503509e-06
aF2.473087634070445e-06
aF2.4488416768736757e-06
aF2.475108130503509e-06
aF2.456923662605932e-06
aF2.4912721019680215e-06
aF2.456923662605932e-06
aF2.456923662605932e-06
aF2.499354087700278e-06
aF2.475108130503509e-06
aF2.483190116235765e-06
aF2.4488416768736757e-06
aF2.4488416768736757e-06
aF2.5922969236212264e-06
aF2.974170749470339e-06
aF2.483190116235765e-06
aF2.4670261447712525e-06
aF2.4670261447712525e-06
aF2.483190116235765e-06
aF2.9842732316356596e-06
aF2.4670261447712525e-06
aF2.456923662605932e-06
aF2.4670261447712525e-06
aF2.4650056483381888e-06
aF2.499354087700278e-06
aF2.7802030918961862e-06
aF2.4650056483381888e-06
aF2.475108130503509e-06
aF2.432677705409163e-06
aF2.4650056483381888e-06
aF2.483190116235765e-06
aF2.458944159038996e-06
aF2.4650056483381888e-06
aF2.4670261447712525e-06
aF2.499354087700278e-06
aF2.499354087700278e-06
aF2.456923662605932e-06
aF2.475108130503509e-06
aF2.4488416768736757e-06
aF2.483190116235765e-06
aF2.626645362983316e-06
aF2.4650056483381888e-06
aF3.034785642462262e-06
aF2.456923662605932e-06
aF2.4670261447712525e-06
aF2.4670261447712525e-06
aF2.4650056483381888e-06
aF2.4650056483381888e-06
aF2.432677705409163e-06
aF2.6104813915188028e-06
aF2.4407596911414193e-06
aF2.483190116235765e-06
aF2.483190116235765e-06
aF2.473087634070445e-06
aF2.6710962845107255e-06
aF2.9842732316356596e-06
aF2.4650056483381888e-06
aF2.5094565698655984e-06
aF2.618563377251059e-06
aF2.4670261447712525e-06
aF2.4811696198027014e-06
aF2.475108130503509e-06
aF2.483190116235765e-06
aF2.4650056483381888e-06
aF2.4407596911414193e-06
aF2.5175385555978547e-06
aF2.4670261447712525e-06
aF2.499354087700278e-06
aF2.4670261447712525e-06
aF2.4932925984010857e-06
aF2.9580067780058264e-06
aF2.4670261447712525e-06
aF2.499354087700278e-06
aF2.458944159038996e-06
aF2.456923662605932e-06
aF2.483190116235765e-06
aF2.4670261447712525e-06
aF2.4670261447712525e-06
aF2.4670261447712525e-06
aF2.4912721019680215e-06
aF2.456923662605932e-06
aF2.475108130503509e-06
aF2.475108130503509e-06
aF2.432677705409163e-06
aF2.475108130503509e-06
aF2.992355217367916e-06
aF2.456923662605932e-06
aF2.45086217330674e-06
aF2.483190116235765e-06
aF2.4407596911414193e-06
aF2.974170749470339e-06
aF2.4912721019680215e-06
aF2.4488416768736757e-06
aF2.4670261447712525e-06
aF2.4488416768736757e-06
aF2.456923662605932e-06
aF2.608460895085739e-06
aF2.475108130503509e-06
aF2.458944159038996e-06
aF2.483190116235765e-06
aF2.483190116235765e-06
aF2.483190116235765e-06
aF2.483190116235765e-06
aF2.475108130503509e-06
aF2.475108130503509e-06
aF2.483190116235765e-06
aF2.501374584133342e-06
aF2.456923662605932e-06
aF2.4670261447712525e-06
aF2.6690757880776617e-06
aF2.501374584133342e-06
aF2.4912721019680215e-06
aF2.501374584133342e-06
aF2.4670261447712525e-06
aF2.458944159038996e-06
aF2.456923662605932e-06
aF2.473087634070445e-06
aF2.8569819563526216e-06
aF2.473087634070445e-06
aF2.475108130503509e-06
aF2.456923662605932e-06
aF2.483190116235765e-06
aF2.483190116235765e-06
aF2.458944159038996e-06
aF2.4670261447712525e-06
aF2.456923662605932e-06
aF2.4407596911414193e-06
aF2.4912721019680215e-06
aF2.483190116235765e-06
aF2.483190116235765e-06
aF2.458944159038996e-06
aF2.9580067780058264e-06
aF2.475108130503509e-06
aF2.483190116235765e-06
aF2.9398223101082496e-06
aF2.483190116235765e-06
aF2.456923662605932e-06
aF2.6003789093534827e-06
aF2.501374584133342e-06
aF2.9842732316356596e-06
aF2.458944159038996e-06
aF2.483190116235765e-06
aF2.4650056483381888e-06
aF2.473087634070445e-06
aF2.6104813915188028e-06
aF2.483190116235765e-06
aF2.4912721019680215e-06
aF2.4932925984010857e-06
aF2.4670261447712525e-06
aF2.483190116235765e-06
aF2.4912721019680215e-06
aF2.677157773809918e-06
aF2.5094565698655984e-06
aF2.475108130503509e-06
aF2.475108130503509e-06
aF2.6286658594163796e-06
aF2.9660887637380828e-06
aF2.4670261447712525e-06
aF2.501374584133342e-06
aF2.501374584133342e-06
aF2.483190116235765e-06
aF2.499354087700278e-06
aF2.501374584133342e-06
aF2.475108130503509e-06
aF2.456923662605932e-06
aF2.456923662605932e-06
aF2.475108130503509e-06
aF2.475108130503509e-06
aF2.4912721019680215e-06
aF2.4912721019680215e-06
aF2.501374584133342e-06
aF2.4912721019680215e-06
aF2.4912721019680215e-06
aF2.568050966424457e-06
aF2.4912721019680215e-06
aF2.4932925984010857e-06
aF2.483190116235765e-06
aF2.4912721019680215e-06
aF2.568050966424457e-06
aF2.475108130503509e-06
aF2.3447024594446655e-06
aF2.420631943234972e-06
aF2.7759819273736067e-06
aF2.2991447691704817e-06
aF2.293070410467257e-06
aF2.2869960517640327e-06
aF2.382667201339819e-06
aF2.2991447691704817e-06
aF2.3249607936591858e-06
aF2.3128120762527367e-06
aF2.305219127873706e-06
aF2.7653517996429636e-06
aF2.3112934865769307e-06
aF2.2991447691704817e-06
aF2.3310351523624105e-06
aF2.2991447691704817e-06
aF2.3188864349559615e-06
aF2.745610133857484e-06
aF2.32344220398338e-06
aF2.280921693060808e-06
aF2.3249607936591858e-06
aF2.3249607936591858e-06
aF2.2869960517640327e-06
aF2.279403103385002e-06
aF2.394815918746268e-06
aF2.382667201339819e-06
aF2.291551820791451e-06
aF2.349258228472084e-06
aF2.3006633588462877e-06
aF2.280921693060808e-06
aF2.3188864349559615e-06
aF2.3128120762527367e-06
aF2.2991447691704817e-06
aF2.3128120762527367e-06
aF2.815465258944566e-06
aF2.293070410467257e-06
aF2.305219127873706e-06
aF2.293070410467257e-06
aF2.3067377175495124e-06
aF2.2869960517640327e-06
aF2.3431838697688595e-06
aF2.3325537420382165e-06
aF2.317367845280155e-06
aF2.3067377175495124e-06
aF2.5664165521123606e-06
aF2.2748473343575836e-06
aF2.2748473343575836e-06
aF2.337109511065635e-06
aF2.3431838697688595e-06
aF2.2991447691704817e-06
aF2.3112934865769307e-06
aF4.598289538340963e-06
aF2.3128120762527367e-06
aF2.3249607936591858e-06
aF2.3188864349559615e-06
aF2.2991447691704817e-06
aF2.293070410467257e-06
aF2.338628100741441e-06
aF2.305219127873706e-06
aF2.293070410467257e-06
aF2.406964636152717e-06
aF2.3568511768511145e-06
aF2.337109511065635e-06
aF2.3249607936591858e-06
aF2.3629255355543393e-06
aF2.4585966851301252e-06
aF2.452522326426901e-06
aF2.420631943234972e-06
aF2.3310351523624105e-06
aF2.2854774620882267e-06
aF2.3128120762527367e-06
aF2.815465258944566e-06
aF2.3188864349559615e-06
aF2.3188864349559615e-06
aF2.4585966851301252e-06
aF2.279403103385002e-06
aF2.3188864349559615e-06
aF2.3310351523624105e-06
aF2.2991447691704817e-06
aF2.3629255355543393e-06
aF2.4722639922123807e-06
aF2.3887415600430433e-06
aF2.3310351523624105e-06
aF2.3310351523624105e-06
aF2.3249607936591858e-06
aF2.317367845280155e-06
aF2.293070410467257e-06
aF2.2869960517640327e-06
aF2.293070410467257e-06
aF2.337109511065635e-06
aF2.3128120762527367e-06
aF2.280921693060808e-06
aF2.291551820791451e-06
aF2.2991447691704817e-06
aF2.3310351523624105e-06
aF2.3507768181478902e-06
aF2.3128120762527367e-06
aF2.3249607936591858e-06
aF2.3310351523624105e-06
aF2.2733287446817777e-06
aF2.293070410467257e-06
aF2.293070410467257e-06
aF2.3689998942575636e-06
aF2.3249607936591858e-06
aF2.3310351523624105e-06
aF2.3310351523624105e-06
aF2.490487068322054e-06
aF2.2748473343575836e-06
aF2.3310351523624105e-06
aF2.3447024594446655e-06
aF2.3249607936591858e-06
aF2.293070410467257e-06
aF2.293070410467257e-06
aF2.3249607936591858e-06
aF2.3249607936591858e-06
aF2.317367845280155e-06
aF2.3689998942575636e-06
aF2.3310351523624105e-06
aF2.305219127873706e-06
aF2.3249607936591858e-06
aF2.2869960517640327e-06
aF3.2740793410380174e-06
aF2.338628100741441e-06
aF2.279403103385002e-06
aF2.419113353559166e-06
aF2.3325537420382165e-06
aF2.3507768181478902e-06
aF2.2854774620882267e-06
aF2.3249607936591858e-06
aF2.3249607936591858e-06
aF2.420631943234972e-06
aF2.5800838591946156e-06
aF2.3310351523624105e-06
aF2.3249607936591858e-06
aF2.2991447691704817e-06
aF2.293070410467257e-06
aF2.3310351523624105e-06
aF2.394815918746268e-06
aF2.293070410467257e-06
aF2.7972421828348924e-06
aF2.3310351523624105e-06
aF2.279403103385002e-06
aF2.3128120762527367e-06
aF2.420631943234972e-06
aF2.2869960517640327e-06
aF2.490487068322054e-06
aF2.2748473343575836e-06
aF2.3249607936591858e-06
aF2.440373609020452e-06
aF2.3006633588462877e-06
aF2.293070410467257e-06
aF2.438855019344646e-06
aF2.2733287446817777e-06
aF2.6696806500671777e-06
aF2.3128120762527367e-06
aF2.2991447691704817e-06
aF2.293070410467257e-06
aF2.2733287446817777e-06
aF2.3067377175495124e-06
aF2.440373609020452e-06
aF2.293070410467257e-06
aF2.3249607936591858e-06
aF2.305219127873706e-06
aF2.3128120762527367e-06
aF2.7395357751542596e-06
aF2.337109511065635e-06
aF2.32344220398338e-06
aF2.293070410467257e-06
aF2.293070410467257e-06
aF2.293070410467257e-06
aF2.744091544181678e-06
aF2.432780660641421e-06
aF2.338628100741441e-06
aF2.3112934865769307e-06
aF2.2869960517640327e-06
aF2.338628100741441e-06
aF2.3249607936591858e-06
aF2.2991447691704817e-06
aF2.2748473343575836e-06
aF2.3112934865769307e-06
aF2.438855019344646e-06
aF2.3249607936591858e-06
aF2.317367845280155e-06
aF2.267254385978553e-06
aF2.293070410467257e-06
aF2.3310351523624105e-06
aF2.4008902774494924e-06
aF2.2748473343575836e-06
aF2.2991447691704817e-06
aF2.2991447691704817e-06
aF2.2854774620882267e-06
aF2.8093909002413415e-06
aF2.3447024594446655e-06
aF2.3112934865769307e-06
aF2.3887415600430433e-06
aF2.3568511768511145e-06
aF2.279403103385002e-06
aF2.3188864349559615e-06
aF2.3310351523624105e-06
aF2.3249607936591858e-06
a.