(lp0
F0.12904796600341797
aF0.1407143771648407
aF0.12634364143013954
aF0.13101259246468544
aF0.12667573243379593
aF0.12810988137216278
aF0.1221226267516613
aF0.1045427120338052
aF0.12668636639912922
aF0.1261669658124447
aF0.1309612618118036
aF0.11846138182140532
aF0.1198432445526123
aF0.11662211115398104
aF0.11893484327528211
aF0.10160967859171205
aF0.1254898291367751
aF0.1208409224787066
aF0.1321631764608716
aF0.1220378421601795
aF0.12407452719552177
aF0.1144573766677106
aF0.11916777395432995
aF0.12051412794325086
aF0.131315216422081
aF0.11070962875120101
aF0.11729244325981765
aF0.13240579515695572
aF0.1288246065378189
aF0.1077707985700187
aF0.11735738118489583
aF0.13159150547451443
aF0.12076041775365029
aF0.12041183825462096
aF0.127112524326031
aF0.12208904758576423
aF0.1238513636210608
aF0.1302780650910877
aF0.11799823492765427
aF0.12003323237101236
aF0.12606460131131686
aF0.1204121264200362
aF0.1174898224492227
aF0.12730979546904564
aF0.12909233920714436
aF0.11917200011591758
aF0.10687316878367278
aF0.1237363490191373
aF0.12140081478999211
aF0.11891106516122818
aF0.11636600097020468
aF0.13064957782626152
aF0.13091976568102837
aF0.12182640234629313
aF0.13267925009131432
aF0.12453521887461344
aF0.1299675253571057
aF0.12351037561893463
aF0.11930990603662306
aF0.12005276679992676
aF0.12087179297831521
aF0.133286609024298
aF0.13072020212809246
aF0.12061550095677376
aF0.13294722817160867
aF0.12190475546080491
aF0.12397861108183861
aF0.1300695613026619
aF0.12631611090440018
aF0.1191944129883297
aF0.13372660800814629
aF0.1283045754288182
aF0.13141636848449706
aF0.12465467819800743
aF0.1214095801115036
aF0.12301674857735634
aF0.12478785881629358
aF0.11637104749679565
aF0.11606821075814669
aF0.12926318868994713
aF0.13751568645238876
aF0.12135740249387679
aF0.10677833027309841
aF0.1328171367075906
aF0.11890159573471337
aF0.12948668748140335
aF0.11706028550358141
aF0.12306445260201732
aF0.12377015873789787
aF0.11950983375799461
aF0.1346581532404973
aF0.12071829661726952
aF0.12701413279674093
aF0.115331964977717
aF0.13797161116528867
aF0.11841732071292016
aF0.13114623951189447
aF0.12995393549809692
aF0.13617049363943245
aF0.12016711632410686
aF0.1319228895008564
aF0.11548060923814774
aF0.12932410836219788
aF0.1170487031340599
aF0.12143534963781183
aF0.12991126626729965
aF0.13034636324102228
aF0.11724495093027751
aF0.12474630095741966
aF0.11925659328699112
aF0.12503346800804138
aF0.123935516923666
aF0.12496640533208847
aF0.124174924997183
aF0.12175600131352743
aF0.12839464098215103
aF0.12453824556790866
aF0.11249753352134459
aF0.13359768688678741
aF0.11690147840059721
aF0.12533764685353926
aF0.129247128017365
aF0.12837996790485998
aF0.1147306619151946
aF0.11746589740117391
aF0.12387418746948242
aF0.12215710083643595
aF0.13048426784686187
aF0.12093348272385136
aF0.11250923928760347
aF0.10629772735854327
aF0.11845039923985799
aF0.12734191864728928
aF0.12684871658446298
aF0.11371789994786997
aF0.11870187328707787
aF0.12642488714124336
aF0.1238815254635281
aF0.13324498385190964
aF0.1089019198571482
aF0.12430983684102043
aF0.11850742433891921
aF0.1284001240363488
aF0.13053509014755932
aF0.11504062914079236
aF0.12209264815799774
aF0.12102160378107948
aF0.1141706665356954
aF0.13383729874141634
aF0.11914882325289543
aF0.12232420936463372
aF0.12485101446509361
aF0.12688643857836723
aF0.12933868542313576
aF0.131092831492424
aF0.12383646965026855
aF0.12323979121535572
aF0.12050356343388557
aF0.13189652934670448
aF0.12059215893821111
aF0.12071562174594763
aF0.11323998371760051
aF0.13269228115677834
aF0.12951227390404904
aF0.1330733849452092
aF0.1353470773407907
aF0.10438510179519653
aF0.12819803347353076
aF0.11346459773279005
aF0.12366153299808502
aF0.11774246923385127
aF0.12487853941370229
aF0.12371815953935895
aF0.12898320621914333
aF0.12326115742325783
aF0.12845227212616891
aF0.11509835915487321
aF0.12077523469924926
aF0.11861503319662126
aF0.11667480071385701
aF0.13920142129063606
aF0.12831459891411565
aF0.11791891654332479
aF0.10478286085457637
aF0.1243649405591628
aF0.13930027931928635
aF0.1224992831548055
aF0.12446864824446421
aF0.12396865180044463
aF0.11367779970169067
aF0.1246014674504598
aF0.11554993176069416
aF0.12124198277791341
aF0.11802527943595512
aF0.11746758884853786
aF0.129022216796875
aF0.13656838616328454
aF0.11997238397598267
aF0.12118696781896776
aF0.1255622148513794
aF0.10182818999657264
aF0.09824580947558086
aF0.09115118330175226
aF0.09953658282756805
aF0.09850706372942243
aF0.08568813535902235
aF0.09569937487443288
aF0.08793836451591329
aF0.09894798199335735
aF0.08744423440162172
aF0.10108476877212524
aF0.10128925201740671
aF0.09172720379299587
aF0.08895579793236473
aF0.08999114731947581
aF0.0932624806528506
aF0.1033970018227895
aF0.09428331255912781
aF0.09896875400932467
aF0.08431467802628227
aF0.0791046771597355
aF0.08586046960618761
aF0.08781048007633376
aF0.09951693813006084
aF0.08074551675377822
aF0.07621428023937137
aF0.10166748364766438
aF0.08885930909050835
aF0.10912683606147766
aF0.08094136258389087
aF0.07589784860610962
aF0.10060848995130889
aF0.10089585681756337
aF0.0929797543419732
aF0.10002482930819194
aF0.08853853509781208
aF0.09635625633538938
aF0.09779496095618423
aF0.09964350136843594
aF0.08897686004638672
aF0.09014343131672252
aF0.0911604881286621
aF0.1085927536090215
aF0.09856887658437093
aF0.09846892265173104
aF0.0886565979490889
aF0.07835775481330023
aF0.08585678770187054
aF0.09715104103088379
aF0.10244505882263183
aF0.0984201431274414
aF0.09123358519180962
aF0.0931674812151038
aF0.10776762609128598
aF0.1023858855752384
aF0.09372426668802897
aF0.09295326349686603
aF0.10559950185858685
aF0.08989131450653076
aF0.09422351451630288
aF0.10160597662130992
aF0.1008761770585004
aF0.09231991353242294
aF0.09833981552902533
aF0.08554147152190512
aF0.09542199969291687
aF0.09163295704385509
aF0.08202985499767547
aF0.08860461762610902
aF0.08926363701516009
aF0.09367028547793019
aF0.08313500049502351
aF0.0918266773223877
aF0.08272208338198454
aF0.07439348864000897
aF0.08685250992470599
aF0.07994668734701056
aF0.09649348788791233
aF0.10329989592234294
aF0.09648291766643524
aF0.08185148793597553
aF0.11126955655904916
aF0.09391983350118001
aF0.07818376740743947
aF0.09011283020178477
aF0.09582082271575927
aF0.078135001031976
aF0.08844457281396743
aF0.07346399994783623
aF0.09104369640350342
aF0.08809041976928711
aF0.09840904176235199
aF0.08736575444539388
aF0.0880274772644043
aF0.09044687946637471
aF0.09292677470615932
aF0.08663331920450384
aF0.08889245468637218
aF0.07897704701090968
aF0.08606818889049773
aF0.10484557260166515
aF0.10229154109954834
aF0.09255164464314779
aF0.08750947813193004
aF0.0977013111114502
aF0.0952398935953776
aF0.09910060465335846
aF0.09812346564398872
aF0.10529507582004254
aF0.0813894271850586
aF0.10123116919334899
aF0.09735367249469368
aF0.10908343207161382
aF0.10010383526484172
aF0.080664447013368
aF0.09848329132678461
aF0.09649239480495453
aF0.09075177510579427
aF0.09112446358863344
aF0.0930654419793023
aF0.0897691301677538
aF0.09923960268497467
aF0.09958367445030991
aF0.10858954702104841
aF0.0799057380012844
aF0.09546170027359673
aF0.0956209550301234
aF0.09293420206416737
aF0.08684972741387108
aF0.08964186364954169
aF0.09793804046955515
aF0.09562706450621287
aF0.08732861280441284
aF0.08738041917483012
aF0.08872989813486735
aF0.08982048643396255
aF0.07703986697726779
aF0.12001617891447884
aF0.08966212369957749
aF0.10725358009338379
aF0.08348391411152292
aF0.08817093849182128
aF0.09496370951334636
aF0.09912451972132144
aF0.09396842934868553
aF0.10634945869445801
aF0.08955702456561002
aF0.0887268835848028
aF0.07380577325820922
aF0.0806323761163756
aF0.10316947599252065
aF0.1011870006720225
aF0.09957039589975394
aF0.0872645844583926
aF0.09512288093566895
aF0.0985255241394043
aF0.08901820182800294
aF0.09831775665283203
aF0.07922597553419031
aF0.09063166512383355
aF0.09861360073089599
aF0.09670252149755304
aF0.09150713682174683
aF0.09380584696064824
aF0.0768410398605022
aF0.08655929565429688
aF0.08926293697762996
aF0.09944218397140503
aF0.09527259932623969
aF0.07586364967878474
aF0.09540437592400444
aF0.10129750316793268
aF0.09627516269683838
aF0.10669072151184082
aF0.08852713372972276
aF0.09838372595766758
aF0.09751075744628906
aF0.10209025588690065
aF0.0929291766622792
aF0.08968010544776917
aF0.09575380531011843
aF0.08331285771869477
aF0.09234625227907871
aF0.10208943215283481
aF0.09184063564647328
aF0.08515110882845792
aF0.10271029949188232
aF0.06950142217236896
aF0.10003199869272661
aF0.11479716499646504
aF0.09640543659528096
aF0.10094457406264085
aF0.09286693551323631
aF0.09184742481150526
aF0.10051820494911888
aF0.09267614364624023
aF0.10514632555154654
aF0.08909104628996416
aF0.0925905095770004
aF0.09431566076075777
aF0.07381093863284949
aF0.0732063018914425
aF0.0632241889834404
aF0.06424696104867118
aF0.051935791969299316
aF0.07038951642585523
aF0.06501061776105095
aF0.051581501960754395
aF0.058788235982259116
aF0.06647229917121655
aF0.06090925585839056
aF0.068365935123328
aF0.05677942306764664
aF0.0496063049022968
aF0.055625168482462566
aF0.0775761604309082
aF0.07324521988630295
aF0.05563099630947771
aF0.06760660807291667
aF0.0719864845275879
aF0.06293928623199463
aF0.05796723365783692
aF0.061214147295270645
aF0.06260309368371964
aF0.0643266785529352
aF0.0608130618929863
aF0.07668514812693876
aF0.06934306025505066
aF0.05470337538883604
aF0.06180503368377686
aF0.0709802258399225
aF0.05554959774017334
aF0.0672191756112235
aF0.05708252906799317
aF0.06517949104309081
aF0.06249756472451346
aF0.07516666614648068
aF0.07428566614786784
aF0.06418720881144206
aF0.07567158010270861
aF0.06576179635935817
aF0.07027584314346313
aF0.08124358786476983
aF0.06370979944864909
aF0.06255954684633197
aF0.062067570005144394
aF0.06148625189258206
aF0.08103736241658528
aF0.05115534519327098
aF0.061417605195726664
aF0.06371796542200549
aF0.06882411783391779
aF0.05950917046645592
aF0.06914059072732925
aF0.07251444790098402
aF0.08076518774032593
aF0.05409863471984863
aF0.06367584197751937
aF0.055476322174072265
aF0.07709255814552307
aF0.07191109657287598
aF0.052991700172424314
aF0.071986623108387
aF0.06583193576697147
aF0.07485756278038025
aF0.058719380148525895
aF0.06669864935033462
aF0.060099925313677104
aF0.0585536495331795
aF0.07034607444490705
aF0.05070263147354126
aF0.059245255685621695
aF0.06667914811302633
aF0.06192293167114258
aF0.07398100197315216
aF0.062419856295866126
aF0.07259165495634079
aF0.06121246303830828
aF0.06922121481461958
aF0.05998260634286063
aF0.0769717630587126
aF0.07348266514864835
aF0.05590650013514927
aF0.06182733449068936
aF0.05780893166859945
aF0.07223728724888392
aF0.06075530052185059
aF0.06258767492630903
aF0.05706264291490827
aF0.06763890385627747
aF0.04956936836242676
aF0.06440717598487591
aF0.06548362225294113
aF0.0665893703699112
aF0.052198517707086375
aF0.05381268070590112
aF0.0547185519645954
aF0.051469063758850096
aF0.04514322457490144
aF0.05619978021692346
aF0.062027869686003656
aF0.06015206084531896
aF0.05879763320640281
aF0.04094187073085619
aF0.052175002438681464
aF0.0489620014473244
aF0.0691739022731781
aF0.06309454671798213
aF0.05172876516977946
aF0.053242144761262114
aF0.06051203727722168
aF0.08130183219909667
aF0.05090658126338836
aF0.06417515128850937
aF0.05444515192950213
aF0.06435309034405333
aF0.05465946878705706
aF0.05796129703521728
aF0.07366102933883667
aF0.07002645901271275
aF0.05939337611198425
aF0.06548843383789063
aF0.06675559679667155
aF0.059683850833347867
aF0.0757799744606018
aF0.07096549868583679
aF0.06489887833595276
aF0.055435800552368165
aF0.061722293976814516
aF0.06651122123003006
aF0.06212548286684098
aF0.06877347301034366
aF0.06976528465747833
aF0.06504809111356735
aF0.06077525019645691
aF0.05951497134040384
aF0.06510741479935185
aF0.08383649587631226
aF0.07061143964529037
aF0.057134457996913364
aF0.0677286061373624
aF0.06573027552980365
aF0.05488344475075051
aF0.05296433413470233
aF0.057541335070574726
aF0.0613259038617534
aF0.05717168315764396
aF0.06312137097120285
aF0.060920707641109344
aF0.0664200277039499
aF0.05734545843941825
aF0.07690733008914524
aF0.06472640879013959
aF0.06164406907969508
aF0.046558803127657984
aF0.0685665854092302
aF0.0630996306737264
aF0.0702903809085969
aF0.06742002815008163
aF0.058220801814909906
aF0.06838193734486898
aF0.06108822361115487
aF0.06888269655632251
aF0.057277169720879914
aF0.06227677209036691
aF0.07409146428108215
aF0.07275834679603577
aF0.07166155841615465
aF0.06885524839162827
aF0.05888517413820539
aF0.058647718429565426
aF0.05917752534151077
aF0.05890022913614909
aF0.06798088550567627
aF0.06709881984826291
aF0.0661596804857254
aF0.05785147100687027
aF0.06452520688374837
aF0.0727663176400321
aF0.07161600059933132
aF0.06786810557047526
aF0.05873481432596842
aF0.06884666645165646
aF0.060725419752059445
aF0.05324477619594998
aF0.0677429643170587
aF0.06046167496711977
aF0.06469933914415764
aF0.05711616239240093
aF0.060327486558394
aF0.07166833877563476
aF0.0645374059677124
aF0.055890398366110663
aF0.05636642773946126
aF0.05748418838747086
aF0.05740471040048907
aF0.0610634203880064
aF0.061754654193746636
aF0.06091021639960153
aF0.06923514253952924
aF0.03251036475686466
aF0.03624247102176442
aF0.027819999059041343
aF0.028069138526916504
aF0.03372317552566528
aF0.030635889838723576
aF0.031634509563446045
aF0.026051918665568035
aF0.03172991825984074
aF0.03701385429927281
aF0.03469999631245931
aF0.04049939579433865
aF0.029482332865397136
aF0.041242787712498716
aF0.033458431561787925
aF0.02838453879723182
aF0.036879274580213756
aF0.02460316816965739
aF0.03599106564241297
aF0.01711173491044478
aF0.029955607194166917
aF0.028596418244498118
aF0.025554990768432616
aF0.03654143214225769
aF0.047045379877090454
aF0.03409627278645833
aF0.031528075536092125
aF0.030355471831101637
aF0.03900541757282458
aF0.04075165589650472
aF0.03702569007873535
aF0.04012918472290039
aF0.03144550323486328
aF0.04095515939924452
aF0.0385572612285614
aF0.04073232412338257
aF0.034899573577077764
aF0.037804871797561646
aF0.02591815361609826
aF0.028855502605438232
aF0.03518560727437337
aF0.03902016187969007
aF0.040915071964263916
aF0.03306072552998861
aF0.03165413538614909
aF0.031305858067103794
aF0.03293581306934357
aF0.052421948489020855
aF0.02867600123087565
aF0.025129497051239014
aF0.031558678700373724
aF0.04245506227016449
aF0.03477907180786133
aF0.03568734842188218
aF0.03994855284690857
aF0.02546548843383789
aF0.030673868515912223
aF0.038262560963630676
aF0.020982861518859863
aF0.031379565596580505
aF0.030764838059743244
aF0.03396394378260562
aF0.0318426787853241
aF0.030192747712135315
aF0.04119481146335602
aF0.024544795354207356
aF0.031081648433909696
aF0.03655900061130524
aF0.026704569657643635
aF0.02985219955444336
aF0.03693157748172158
aF0.033821940422058105
aF0.0323640016409067
aF0.023118138313293457
aF0.0258603606905256
aF0.028999530352078952
aF0.03276847538195158
aF0.03057817618052165
aF0.04379238188266754
aF0.03627912700176239
aF0.028740135828653972
aF0.04144547967349782
aF0.05106720924377441
aF0.04218438955453726
aF0.03913066122266981
aF0.037996068596839905
aF0.037453800439834595
aF0.01719717545942827
aF0.03882215023040771
aF0.03506044546763102
aF0.03682255744934082
aF0.028858679991502028
aF0.03607616159651014
aF0.0459466858914024
aF0.0270613431930542
aF0.02525785764058431
aF0.035861313343048096
aF0.03703351318836212
aF0.04106350243091583
aF0.028430155345371792
aF0.040608614683151245
aF0.024268286568777903
aF0.036364004015922546
aF0.04764063734757273
aF0.03603343665599823
aF0.02491022990300105
aF0.04634280502796173
aF0.026075363159179688
aF0.04481939077377319
aF0.03385987877845764
aF0.04354424774646759
aF0.034125879406929016
aF0.04410910606384277
aF0.04807218909263611
aF0.043724441528320314
aF0.03580594062805176
aF0.03225806180168601
aF0.029876327514648436
aF0.028067077909197127
aF0.034017784254891534
aF0.03438029569738051
aF0.03437827428181966
aF0.038341641426086426
aF0.027467421122959683
aF0.030040244261423748
aF0.039672866463661194
aF0.04048818349838257
aF0.03619841734568278
aF0.034085876801434684
aF0.04015682637691498
aF0.026051778059739333
aF0.046068000793457034
aF0.03700457513332367
aF0.0393785685300827
aF0.03360027737087674
aF0.037433817982673645
aF0.04233511756448185
aF0.04267244040966034
aF0.03756213188171387
aF0.026177469889322916
aF0.03005420366923014
aF0.027729252974192303
aF0.04227319359779358
aF0.03580961227416992
aF0.023196850504193987
aF0.03130307197570801
aF0.026444415251413982
aF0.03900681436061859
aF0.020778092471036045
aF0.029148230185875527
aF0.02319226264953613
aF0.04584061581155528
aF0.031102508306503296
aF0.02962946891784668
aF0.025382598241170246
aF0.02603776638324444
aF0.030078932642936707
aF0.031543456591092624
aF0.04215031862258911
aF0.04757837951183319
aF0.025788505872090656
aF0.02660237825833834
aF0.04069984876192533
aF0.03937347730000814
aF0.04101400077342987
aF0.048150829646898353
aF0.04209935665130615
aF0.04332573711872101
aF0.031598567962646484
aF0.039196205139160153
aF0.025373836358388264
aF0.04575912654399872
aF0.03936810242502313
aF0.04256289145525764
aF0.028061660130818684
aF0.04622724652290344
aF0.031692445278167725
aF0.04099793995127959
aF0.024299706731523787
aF0.039739796989842466
aF0.04042063653469086
aF0.04707946496851304
aF0.04082078403896756
aF0.03350900113582611
aF0.02423100471496582
aF0.04552083545260959
aF0.029344733556111655
aF0.03409440377179314
aF0.04081679880619049
aF0.03567106907184307
aF0.03715876738230387
aF0.027315763326791618
aF0.04052338335249159
aF0.04407565733965706
aF0.023642778396606445
aF0.025941243538489707
aF0.04208669066429138
aF0.040968820452690125
aF0.039840564131736755
aF0.0379675030708313
a.