(lp0
F0.07597939173380534
aF0.06770531833171844
aF0.06303137540817261
aF0.06545580923557281
aF0.06330712139606476
aF0.06554350256919861
aF0.06086456775665283
aF0.06943392753601074
aF0.06685520807902018
aF0.06286786496639252
aF0.06961633364359537
aF0.06626373926798503
aF0.0624725341796875
aF0.06512360572814942
aF0.06651779810587564
aF0.06112607887813023
aF0.06369593739509583
aF0.06566392580668132
aF0.0711414655049642
aF0.06824599901835124
aF0.06944793065388997
aF0.06076547304789225
aF0.0656335989634196
aF0.06602381070454916
aF0.06572650372982025
aF0.060915867487589516
aF0.06368114153544108
aF0.0682782381772995
aF0.07495617866516113
aF0.06468442508152553
aF0.06240719159444173
aF0.07228547732035319
aF0.0664522647857666
aF0.06522472699483235
aF0.06334850192070007
aF0.06771686871846518
aF0.06907420158386231
aF0.07303373018900554
aF0.05885481834411621
aF0.06413866678873698
aF0.06397375464439392
aF0.06625040372212727
aF0.06454213460286458
aF0.06413380801677704
aF0.06750406938440659
aF0.0655673344930013
aF0.06339129379817418
aF0.06379425525665283
aF0.061345502734184265
aF0.05834324657917023
aF0.06204333305358887
aF0.06534457206726074
aF0.06529112160205841
aF0.06361467043558756
aF0.06461681425571442
aF0.06893065770467123
aF0.06776946385701497
aF0.06175968050956726
aF0.06557472546895345
aF0.06192132631937663
aF0.062026187777519226
aF0.07206573486328124
aF0.07167739868164062
aF0.05910287797451019
aF0.06960850954055786
aF0.06812400477273124
aF0.06193274259567261
aF0.06496861577033997
aF0.06278055906295776
aF0.06674280166625976
aF0.06602711975574493
aF0.06397230923175812
aF0.06511817872524261
aF0.06331993639469147
aF0.06075562536716461
aF0.06146906316280365
aF0.06214849650859833
aF0.06167426109313965
aF0.06284372011820476
aF0.06273074448108673
aF0.0641535073518753
aF0.063511323928833
aF0.05973691940307617
aF0.06925399601459503
aF0.0679847002029419
aF0.06346288323402405
aF0.07127429757799421
aF0.06742361386617025
aF0.06192687153816223
aF0.06468219757080078
aF0.06746149063110352
aF0.06001555919647217
aF0.06868879000345866
aF0.06935671397617885
aF0.07188531756401062
aF0.06537173589070638
aF0.0676126778125763
aF0.06995019912719727
aF0.06458699703216553
aF0.06411679585774739
aF0.06494249403476715
aF0.05774061381816864
aF0.06308543682098389
aF0.05712243914604187
aF0.0626162588596344
aF0.06522224843502045
aF0.06608861684799194
aF0.06778246561686198
aF0.06395511329174042
aF0.0595899373292923
aF0.06243570148944855
aF0.060700371861457825
aF0.06236986815929413
aF0.06296999752521515
aF0.06377333005269369
aF0.06407718360424042
aF0.06323018670082092
aF0.06211700439453125
aF0.06670443713665009
aF0.059213072061538696
aF0.06906514167785645
aF0.0705833911895752
aF0.06927979787190755
aF0.06321372985839843
aF0.06223448117574056
aF0.0617736279964447
aF0.06511847178141277
aF0.06800761818885803
aF0.06513934135437012
aF0.061961062749226886
aF0.06387129851749965
aF0.06294894218444824
aF0.0637238621711731
aF0.07137406667073568
aF0.06027685801188151
aF0.0655735969543457
aF0.06850299835205079
aF0.06934647560119629
aF0.06449912488460541
aF0.0584959348042806
aF0.06733967463175455
aF0.06409538586934407
aF0.06520512700080872
aF0.06690751016139984
aF0.06333379745483399
aF0.06733821233113607
aF0.06775193214416504
aF0.05812613169352213
aF0.08331834475199382
aF0.06789178507668632
aF0.06897613207499186
aF0.06298087537288666
aF0.06351825594902039
aF0.06453630328178406
aF0.0641913115978241
aF0.06597986221313476
aF0.06439107656478882
aF0.05916838347911835
aF0.06584581732749939
aF0.06728280385335286
aF0.062364622950553894
aF0.05899747212727865
aF0.06631512939929962
aF0.06592562794685364
aF0.06758786737918854
aF0.06969855725765228
aF0.05563880602518718
aF0.0679816722869873
aF0.06243586540222168
aF0.06061038374900818
aF0.06486913363138834
aF0.06754045486450196
aF0.06773606936136882
aF0.07207760810852051
aF0.07718649506568909
aF0.07594357430934906
aF0.06028540929158529
aF0.06425553957621256
aF0.06425940195719401
aF0.062328004837036134
aF0.06846968829631805
aF0.07037153244018554
aF0.06284127235412598
aF0.060148494584219794
aF0.0584716516382554
aF0.06861819326877594
aF0.06517740885416666
aF0.06862072944641114
aF0.06392163038253784
aF0.059366273880004886
aF0.06496739387512207
aF0.06482086181640626
aF0.06346267064412435
aF0.0626193364461263
aF0.06569873491923015
aF0.06871500015258789
aF0.0706128180027008
aF0.0627374013264974
aF0.06700046857198079
aF0.07739866574605306
aF0.12360352736253005
aF0.12903557221094766
aF0.12660592252557928
aF0.1303528149922689
aF0.13266666730244955
aF0.1253219951282848
aF0.12541091442108154
aF0.13461037115617233
aF0.13010992606480917
aF0.13409263437444513
aF0.13304340839385986
aF0.14926262335343796
aF0.1296081759712913
aF0.1224634430625222
aF0.11885684728622437
aF0.13966473666104404
aF0.13557032744089761
aF0.13796701033910116
aF0.1329632600148519
aF0.1270725510337136
aF0.12131363695318048
aF0.12589673562483353
aF0.13159381259571423
aF0.12628159920374551
aF0.13050639629364014
aF0.12905421257019042
aF0.13336275021235147
aF0.12579436735673385
aF0.1434239149093628
aF0.12413473562760786
aF0.11959691047668457
aF0.13560640811920166
aF0.12717225154240927
aF0.13629854809154163
aF0.1312290827433268
aF0.13608017834750089
aF0.134701669216156
aF0.12772407134373984
aF0.1530246301130815
aF0.12775291096080432
aF0.12918983806263318
aF0.13370865041559393
aF0.13828017314275107
aF0.1295121709505717
aF0.11925992598900428
aF0.13262055136940695
aF0.11506826227361505
aF0.13165101138028232
aF0.14012416926297275
aF0.14027865727742514
aF0.13128999869028726
aF0.13693100755864923
aF0.139879356731068
aF0.1324915335728572
aF0.15045183897018433
aF0.13565681197426535
aF0.12054423491160075
aF0.1538595503026789
aF0.12400934912941673
aF0.14720762859691272
aF0.13359898328781128
aF0.14083884159723917
aF0.13882990316911178
aF0.13233266274134317
aF0.12677853757684882
aF0.12567116816838583
aF0.13739826462485574
aF0.1257392709905451
aF0.13082937760786575
aF0.15053226731040262
aF0.12595492601394653
aF0.14306559562683105
aF0.13987764445218173
aF0.11851635846224698
aF0.12604999542236328
aF0.13298281756314365
aF0.14794278144836426
aF0.1364571831443093
aF0.13560799757639566
aF0.12301359574000041
aF0.15353400707244874
aF0.13519861147953913
aF0.11978383858998616
aF0.13260631561279296
aF0.11441757281621297
aF0.14362792174021402
aF0.14502588907877603
aF0.13595680757002396
aF0.12400708198547364
aF0.12469406922658284
aF0.12881753661415793
aF0.12514624993006387
aF0.1279747269370339
aF0.13211490891196512
aF0.11829441785812378
aF0.1247674028078715
aF0.124766544862227
aF0.1346939910541881
aF0.1510370969772339
aF0.13296528296037155
aF0.14540091427889737
aF0.139960507551829
aF0.13168664412064987
aF0.12791699171066284
aF0.12822115421295166
aF0.14005836573514072
aF0.13005425532658896
aF0.1456404599276456
aF0.1268773078918457
aF0.10960566997528076
aF0.15027653087269177
aF0.1433018445968628
aF0.13113031020531288
aF0.12745434045791626
aF0.12307327443903143
aF0.13399740060170492
aF0.1267194946606954
aF0.13609298792752353
aF0.13480871373956854
aF0.1363124413923784
aF0.13478872992775656
aF0.13028117020924887
aF0.13387876749038696
aF0.14114981889724731
aF0.11940318887883966
aF0.14375853538513184
aF0.13771657148996988
aF0.1282163750041615
aF0.12444762750105424
aF0.1283059987154874
aF0.14559017528187146
aF0.12572574615478516
aF0.12472291426225142
aF0.12773648897806802
aF0.11697516838709514
aF0.13279982046647507
aF0.11280573498119008
aF0.13242413316454207
aF0.12072642644246419
aF0.1461531718571981
aF0.12791037559509277
aF0.12140033642450969
aF0.12462308009465535
aF0.1478343660181219
aF0.13496162674643777
aF0.1413189967473348
aF0.1288331855427135
aF0.12741026011380283
aF0.11635611057281495
aF0.13020401000976561
aF0.14653724431991577
aF0.13324681917826334
aF0.13436357180277506
aF0.13031229105862704
aF0.13018532594045004
aF0.12951425711313883
aF0.13070381771434436
aF0.13458842039108276
aF0.11875536225058815
aF0.13283226706764914
aF0.13477875789006552
aF0.13807374780828302
aF0.1303001967343417
aF0.13775155761025168
aF0.11736937002702193
aF0.11373583475748698
aF0.13262044299732556
aF0.13046381870905557
aF0.1401293711228804
aF0.14428369998931884
aF0.1404135443947532
aF0.14553228291598233
aF0.13179733355840048
aF0.1533274253209432
aF0.1297678297216242
aF0.1506279165094549
aF0.12921200195948282
aF0.144128680229187
aF0.1391434452750466
aF0.11390592654546101
aF0.13373200098673502
aF0.1387470006942749
aF0.14760000055486505
aF0.14642663435502487
aF0.13175272941589355
aF0.1217529990456321
aF0.1363316774368286
aF0.11792728900909424
aF0.13043159246444702
aF0.14809391895929971
aF0.12639365593592325
aF0.1226806824023907
aF0.13257791779258035
aF0.14079672640020197
aF0.14128262346441095
aF0.12592883904774985
aF0.12758722672095665
aF0.12867608937350186
aF0.14157037301497025
aF0.14422746138139206
aF0.22260800004005432
aF0.22335398197174072
aF0.18646037578582764
aF0.21376626832144602
aF0.20616034666697183
aF0.2142849862575531
aF0.19850414991378784
aF0.1863910130092076
aF0.21181556156703404
aF0.19779089093208313
aF0.20682529040745326
aF0.2059091031551361
aF0.21034942354474748
aF0.21351047356923422
aF0.2000025681086949
aF0.22637337446212769
aF0.20271775126457214
aF0.19738227980477469
aF0.20345723628997803
aF0.21677199006080627
aF0.20154670306614467
aF0.19001426015581405
aF0.1953778862953186
aF0.18429899215698242
aF0.24161488669259207
aF0.17906451225280762
aF0.2305780053138733
aF0.1906093955039978
aF0.19654386384146555
aF0.22037414142063685
aF0.2463258675166539
aF0.204761164528983
aF0.20467400550842285
aF0.20634082953135172
aF0.2158772349357605
aF0.19737441199166433
aF0.21465849876403809
aF0.1940293312072754
aF0.1941973865032196
aF0.2034766674041748
aF0.21674915722438268
aF0.18810462951660156
aF0.21258510483635795
aF0.23358872958592006
aF0.1913747489452362
aF0.19995814561843872
aF0.20997026988438197
aF0.2107808854844835
aF0.1785210200718471
aF0.23625142233712332
aF0.22073745727539062
aF0.2107124924659729
aF0.20740413665771484
aF0.2004457414150238
aF0.18865187962849936
aF0.23894575238227844
aF0.2202210028966268
aF0.21051900727408274
aF0.23043465614318848
aF0.20486927032470703
aF0.19025462865829468
aF0.1897568702697754
aF0.22813498973846436
aF0.19628599286079407
aF0.21886113286018372
aF0.2009547097342355
aF0.2106936275959015
aF0.1995959963117327
aF0.21765957559858048
aF0.21045769963945662
aF0.19689281781514487
aF0.245614869253976
aF0.21128439903259277
aF0.22273458753313338
aF0.20572462677955627
aF0.21095561981201172
aF0.2127281129360199
aF0.20584712709699357
aF0.20958450436592102
aF0.20695699964250838
aF0.21242409282260472
aF0.22249901294708252
aF0.17011758259364537
aF0.1910138726234436
aF0.20858257157461985
aF0.2330903708934784
aF0.21453687122889928
aF0.21535298228263855
aF0.1918209961482457
aF0.1967441439628601
aF0.1923398630959647
aF0.22072713715689524
aF0.19036713242530823
aF0.1973324716091156
aF0.19180444308689662
aF0.1991332939692906
aF0.21578669548034668
aF0.18715354374476842
aF0.21082051595052084
aF0.23555235068003336
aF0.22991715158735002
aF0.19243201613426208
aF0.25902533531188965
aF0.2548349857330322
aF0.1754652772630964
aF0.23350985844930014
aF0.21777763962745667
aF0.23484785216195242
aF0.18394558770315989
aF0.23427414894104004
aF0.24550151824951172
aF0.255891352891922
aF0.1954988411494664
aF0.18846610188484192
aF0.23585816224416098
aF0.19721311330795288
aF0.18568784849984304
aF0.20745069640023367
aF0.23673537373542786
aF0.22617661952972412
aF0.1949014961719513
aF0.23484172139848983
aF0.24547958374023438
aF0.2046701226915632
aF0.1980812284681532
aF0.20673513412475586
aF0.209364116191864
aF0.19816500799996511
aF0.22733913149152482
aF0.19806575775146484
aF0.21573870522635324
aF0.2167646288871765
aF0.2043716311454773
aF0.19534975290298462
aF0.1803404986858368
aF0.18466514348983765
aF0.24052027293613978
aF0.2273101011912028
aF0.210138738155365
aF0.19177031517028809
aF0.1855486035346985
aF0.20027875900268555
aF0.24235200881958008
aF0.227064847946167
aF0.25593602657318115
aF0.22642898559570312
aF0.2096530028751918
aF0.18736976385116577
aF0.22406513350350515
aF0.20057299733161926
aF0.19682526588439941
aF0.2142055564456516
aF0.19959673285484314
aF0.19564802306038992
aF0.1830615656716483
aF0.2289292812347412
aF0.22464987209865026
aF0.26265341894967215
aF0.1983596384525299
aF0.2348292555127825
aF0.23347970417567662
aF0.22936098916190012
aF0.1981707513332367
aF0.1808281626020159
aF0.20511749386787415
aF0.23940497636795044
aF0.21380674839019775
aF0.18700644705030653
aF0.18875586986541748
aF0.20406126976013184
aF0.23727118968963623
aF0.17083999514579773
aF0.21210469518389022
aF0.20990362763404846
aF0.20379123091697693
aF0.19845062494277954
aF0.18210425972938538
aF0.22684884071350098
aF0.23369276523590088
aF0.1865549087524414
aF0.2480348518916539
aF0.2583196560541789
aF0.2073858678340912
aF0.23041258539472306
aF0.2339771588643392
aF0.21929083551679338
aF0.23064868790762766
aF0.19668763875961304
aF0.21405601501464844
aF0.18218600749969482
aF0.23266476392745972
aF0.18964210152626038
aF0.1858807291303362
aF0.22502429144723074
aF0.21576343263898576
aF0.21151586941310338
aF0.2491004467010498
aF0.21490400178091867
aF0.20317656653267996
aF0.21016323566436768
aF0.27419549226760864
aF0.2995615005493164
aF0.4090086619059245
aF0.29594866434733075
aF0.25697773694992065
aF0.2945305109024048
aF0.3274067242940267
aF0.2608773708343506
aF0.35678895314534503
aF0.3326520125071208
aF0.3019104599952698
aF0.38936424255371094
aF0.3644513289133708
aF0.3804677724838257
aF0.28681421279907227
aF0.32097601890563965
aF0.3206242322921753
aF0.3112773895263672
aF0.297992467880249
aF0.35876405239105225
aF0.4320669968922933
aF0.34634192784627277
aF0.3293883005777995
aF0.2806198000907898
aF0.35953450202941895
aF0.44179495175679523
aF0.3311782677968343
aF0.3449653784434001
aF0.3603552579879761
aF0.36792699495951336
aF0.34327125549316406
aF0.31334376335144043
aF0.26046526432037354
aF0.35550177097320557
aF0.3234582543373108
aF0.3384386698404948
aF0.3285125494003296
aF0.30320072174072266
aF0.28960132598876953
aF0.2990536689758301
aF0.32364336649576825
aF0.3937990069389343
aF0.3184412121772766
aF0.42884230613708496
aF0.41037631034851074
aF0.378177007039388
aF0.25734174251556396
aF0.34182751178741455
aF0.3763153553009033
aF0.25887266794840497
aF0.2988046010335286
aF0.3362847566604614
aF0.3389120101928711
aF0.2912912964820862
aF0.3038957118988037
aF0.2652699947357178
aF0.26137346029281616
aF0.2972862720489502
aF0.324629545211792
aF0.2518925070762634
aF0.3176126480102539
aF0.3830944895744324
aF0.26100653409957886
aF0.23266172409057617
aF0.36284250020980835
aF0.33295297622680664
aF0.26241523027420044
aF0.28309452533721924
aF0.27793200810750324
aF0.39163931210835773
aF0.34367549419403076
aF0.34773820638656616
aF0.3051266670227051
aF0.28337732950846356
aF0.30562535921732586
aF0.3331576983133952
aF0.3040339946746826
aF0.3158559799194336
aF0.3435029983520508
aF0.2821909785270691
aF0.3716593583424886
aF0.3503892421722412
aF0.3194593906402588
aF0.33686304092407227
aF0.3448934555053711
aF0.29477423429489136
aF0.3056100010871887
aF0.3593440055847168
aF0.24168601036071777
aF0.31118929386138916
aF0.28599023818969727
aF0.3188953399658203
aF0.3360057473182678
aF0.3394555449485779
aF0.3285876115163167
aF0.3970406850179036
aF0.28379547595977783
aF0.2867310047149658
aF0.30773502588272095
aF0.34362300237019855
aF0.3107312321662903
aF0.3006593386332194
aF0.2827112674713135
aF0.3427862524986267
aF0.260739803314209
aF0.27932071685791016
aF0.400229275226593
aF0.4917454719543457
aF0.27292680740356445
aF0.26855599880218506
aF0.34137946367263794
aF0.2644762396812439
aF0.44512951374053955
aF0.37430524826049805
aF0.28027777671813964
aF0.27869802713394165
aF0.2676137685775757
aF0.3955869674682617
aF0.3382723331451416
aF0.4107929865519206
aF0.33571404218673706
aF0.48325363794962567
aF0.3923649787902832
aF0.29853304227193195
aF0.31053702036539715
aF0.3063872456550598
aF0.3593604564666748
aF0.3742376168568929
aF0.28259819746017456
aF0.27961021661758423
aF0.2948306401570638
aF0.2872112274169922
aF0.27074599266052246
aF0.31067103147506714
aF0.29825127124786377
aF0.2836742401123047
aF0.34890925884246826
aF0.34022921323776245
aF0.29286450147628784
aF0.3688993453979492
aF0.32605799039204914
aF0.2831246852874756
aF0.3197992444038391
aF0.3490116596221924
aF0.27780501047770184
aF0.4069356123606364
aF0.2734166781107585
aF0.2894167900085449
aF0.443434476852417
aF0.32907334963480633
aF0.2966759999593099
aF0.28284540176391604
aF0.24259048700332642
aF0.43493231137593585
aF0.25832295417785645
aF0.2939136823018392
aF0.2325812578201294
aF0.36659836769104004
aF0.32693052291870117
aF0.35336875915527344
aF0.26358501116434735
aF0.2983729839324951
aF0.4583283265431722
aF0.523149331410726
aF0.35611897706985474
aF0.31885623931884766
aF0.5151556332906088
aF0.3427332043647766
aF0.38296230634053546
aF0.24377341270446778
aF0.32445700963338214
aF0.3474292755126953
aF0.36804497241973877
aF0.341134250164032
aF0.3618620236714681
aF0.4347105026245117
aF0.24765777587890625
aF0.33061927556991577
aF0.3181716601053874
aF0.36743074655532837
aF0.31310325860977173
aF0.31158626079559326
aF0.4041327238082886
aF0.2669067978858948
aF0.3158222834269206
aF0.40210574865341187
aF0.38158472379048664
aF0.2876887917518616
aF0.3169170022010803
aF0.37433505058288574
aF0.3221074938774109
aF0.3523610432942708
aF0.32893872261047363
aF0.35859251022338867
aF0.2879439989725749
aF0.2862393061319987
aF0.32007700204849243
aF0.3272320032119751
aF0.31432050466537476
aF0.29576700925827026
a.